

Microchip MPLAB XC8 Assembler V2.41 build 20230208172133 
                                                                                               Wed Jun 14 01:18:26 2023

Microchip MPLAB XC8 C Compiler v2.41 (Free license) build 20230208172133 Og1 
     1                           	processor	18F4550
     2                           	fnconf	rparam,??,?,0
     3                           	pagewidth 120
     4                           	opt	flic
     5                           	psect	smallconst,global,reloc=2,class=SMALLCONST,delta=1,noexec
     6                           	psect	cinit,global,reloc=2,class=CODE,delta=1
     7                           	psect	bssCOMRAM,global,class=COMRAM,space=1,delta=1,lowdata,noexec
     8                           	psect	bssBANK0,global,class=BANK0,space=1,delta=1,lowdata,noexec
     9                           	psect	cstackBANK0,global,class=BANK0,space=1,delta=1,lowdata,noexec
    10                           	psect	cstackCOMRAM,global,class=COMRAM,space=1,delta=1,lowdata,noexec
    11                           	psect	text0,global,reloc=2,class=CODE,delta=1
    12                           	psect	text1,global,reloc=2,class=CODE,delta=1
    13                           	psect	text2,global,reloc=2,class=CODE,delta=1
    14                           	psect	text3,global,reloc=2,class=CODE,delta=1
    15                           	psect	text4,global,reloc=2,class=CODE,delta=1,group=2
    16                           	psect	text5,global,reloc=2,class=CODE,delta=1
    17                           	psect	text6,global,reloc=2,class=CODE,delta=1
    18                           	psect	text7,global,reloc=2,class=CODE,delta=1
    19                           	psect	intcodelo,global,reloc=2,class=CODE,delta=1
    20                           	psect	text9,global,reloc=2,class=CODE,delta=1
    21                           	psect	intcode,global,reloc=2,class=CODE,delta=1
    22                           	psect	intcode_body,global,reloc=2,class=CODE,delta=1
    23                           	psect	text11,global,reloc=2,class=CODE,delta=1
    24                           	psect	text12,global,reloc=2,class=CODE,delta=1
    25                           	psect	text13,global,reloc=2,class=CODE,delta=1
    26                           	psect	text14,global,reloc=2,class=CODE,delta=1
    27                           	psect	text15,global,reloc=2,class=CODE,delta=1
    28                           	psect	text16,global,reloc=2,class=CODE,delta=1
    29                           	psect	text17,global,reloc=2,class=CODE,delta=1
    30                           	psect	text18,global,reloc=2,class=CODE,delta=1,group=2
    31                           	psect	text19,global,reloc=2,class=CODE,delta=1
    32                           	psect	text20,global,reloc=2,class=CODE,delta=1
    33                           	psect	text21,global,reloc=2,class=CODE,delta=1
    34                           	psect	text22,global,reloc=2,class=CODE,delta=1
    35                           	psect	text23,global,reloc=2,class=CODE,delta=1
    36                           	psect	text24,global,reloc=2,class=CODE,delta=1
    37                           	psect	text25,global,reloc=2,class=CODE,delta=1
    38                           	psect	text26,global,reloc=2,class=CODE,delta=1
    39                           	psect	text27,global,reloc=2,class=CODE,delta=1
    40                           	psect	text28,global,reloc=2,class=CODE,delta=1
    41                           	psect	text29,global,reloc=2,class=CODE,delta=1
    42                           	psect	text30,global,reloc=2,class=CODE,delta=1
    43                           	psect	text31,global,reloc=2,class=CODE,delta=1
    44                           	psect	text32,global,reloc=2,class=CODE,delta=1
    45                           	psect	text33,global,reloc=2,class=CODE,delta=1
    46                           	psect	text34,global,reloc=2,class=CODE,delta=1
    47                           	psect	text35,global,reloc=2,class=CODE,delta=1
    48                           	psect	text36,global,reloc=2,class=CODE,delta=1
    49                           	psect	text37,global,reloc=2,class=CODE,delta=1
    50                           	psect	text38,global,reloc=2,class=CODE,delta=1
    51                           	psect	text39,global,reloc=2,class=CODE,delta=1
    52                           	psect	intsave_regs,global,class=BIGRAM,space=1,delta=1,noexec
    53                           	psect	rparam,global,class=COMRAM,space=1,delta=1,noexec
    54                           	psect	temp,global,ovrld,common,class=COMRAM,space=1,delta=1
    55                           	psect	idloc,global,abs,ovrld,class=IDLOC,space=5,delta=1,noexec
    56                           	psect	config,global,abs,ovrld,class=CONFIG,space=4,delta=1,noexec
    57                           	dabs	1,0x400,32,_BDT
    58                           	dabs	1,0x500,64,_ReceivedDataBuffer
    59                           	dabs	1,0x428,8,_CtrlTrfData
    60                           	dabs	1,0x420,8,_SetupPkt
    61                           	dabs	1,0x540,64,_ToSendDataBuffer
    62   000000                     
    63                           ; Generated 23/03/2023 GMT
    64                           ; 
    65                           ; Copyright © 2023, Microchip Technology Inc. and its subsidiaries ("Microchip")
    66                           ; All rights reserved.
    67                           ; 
    68                           ; This software is developed by Microchip Technology Inc. and its subsidiaries ("Microch
      +                          ip").
    69                           ; 
    70                           ; Redistribution and use in source and binary forms, with or without modification, are
    71                           ; permitted provided that the following conditions are met:
    72                           ; 
    73                           ;     1. Redistributions of source code must retain the above copyright notice, this lis
      +                          t of
    74                           ;        conditions and the following disclaimer.
    75                           ; 
    76                           ;     2. Redistributions in binary form must reproduce the above copyright notice, this 
      +                          list
    77                           ;        of conditions and the following disclaimer in the documentation and/or other
    78                           ;        materials provided with the distribution. Publication is not required when
    79                           ;        this file is used in an embedded application.
    80                           ; 
    81                           ;     3. Microchip's name may not be used to endorse or promote products derived from th
      +                          is
    82                           ;        software without specific prior written permission.
    83                           ; 
    84                           ; THIS SOFTWARE IS PROVIDED BY MICROCHIP "AS IS" AND ANY EXPRESS OR IMPLIED WARRANTIES,
    85                           ; INCLUDING, BUT NOT LIMITED TO, THE IMPLIED WARRANTIES OF MERCHANTABILITY AND FITNESS F
      +                          OR
    86                           ; PURPOSE ARE DISCLAIMED.  IN NO EVENT SHALL MICROCHIP BE LIABLE FOR ANY DIRECT, INDIREC
      +                          T,
    87                           ; INCIDENTAL, SPECIAL, EXEMPLARY, OR CONSEQUENTIAL DAMAGES (INCLUDING BUT NOT LIMITED TO
    88                           ; PROCUREMENT OF SUBSTITUTE GOODS OR SERVICES; LOSS OF USE, DATA OR PROFITS; OR BUSINESS
    89                           ; INTERRUPTION) HOWSOEVER CAUSED AND ON ANY THEORY OF LIABILITY, WHETHER IN CONTRACT, ST
      +                          RICT
    90                           ; LIABILITY, OR TORT (INCLUDING NEGLIGENCE OR OTHERWISE) ARISING IN ANY WAY OUT OF THE U
      +                          SE OF
    91                           ; THIS SOFTWARE, EVEN IF ADVISED OF THE POSSIBILITY OF SUCH DAMAGE.
    92                           ; 
    93                           ; 
    94                           ; Code-generator required, PIC18F4550 Definitions
    95                           ; 
    96                           ; SFR Addresses
    97   000000                     
    98                           	psect	smallconst
    99   000800                     __psmallconst:
   100                           	callstack 0
   101   000800  00                 	db	0
   102   000801                     _USB_SD_Ptr:
   103                           	callstack 0
   104   000801  C3                 	db	low _sd000
   105   000802  08                 	db	high _sd000
   106   000803  09                 	db	low _sd001
   107   000804  08                 	db	high _sd001
   108   000805  3D                 	db	low _sd002
   109   000806  08                 	db	high _sd002
   110   000807                     __end_of_USB_SD_Ptr:
   111                           	callstack 0
   112   000807                     _USB_CD_Ptr:
   113                           	callstack 0
   114   000807  6B                 	db	low _configDescriptor1
   115   000808  08                 	db	high _configDescriptor1
   116   000809                     __end_of_USB_CD_Ptr:
   117                           	callstack 0
   118   000809                     _sd001:
   119                           	callstack 0
   120   000809  34                 	db	52
   121   00080A  03                 	db	3
   122   00080B  004D               	dw	77
   123   00080D  0069               	dw	105
   124   00080F  0063               	dw	99
   125   000811  0072               	dw	114
   126   000813  006F               	dw	111
   127   000815  0063               	dw	99
   128   000817  0068               	dw	104
   129   000819  0069               	dw	105
   130   00081B  0070               	dw	112
   131   00081D  0020               	dw	32
   132   00081F  0054               	dw	84
   133   000821  0065               	dw	101
   134   000823  0063               	dw	99
   135   000825  0068               	dw	104
   136   000827  006E               	dw	110
   137   000829  006F               	dw	111
   138   00082B  006C               	dw	108
   139   00082D  006F               	dw	111
   140   00082F  0067               	dw	103
   141   000831  0079               	dw	121
   142   000833  0020               	dw	32
   143   000835  0049               	dw	73
   144   000837  006E               	dw	110
   145   000839  0063               	dw	99
   146   00083B  002E               	dw	46
   147   00083D                     __end_of_sd001:
   148                           	callstack 0
   149   00083D                     _sd002:
   150                           	callstack 0
   151   00083D  2E                 	db	46
   152   00083E  03                 	db	3
   153   00083F  0050               	dw	80
   154   000841  0049               	dw	73
   155   000843  0043               	dw	67
   156   000845  0031               	dw	49
   157   000847  0038               	dw	56
   158   000849  0046               	dw	70
   159   00084B  0034               	dw	52
   160   00084D  0035               	dw	53
   161   00084F  0035               	dw	53
   162   000851  0030               	dw	48
   163   000853  0020               	dw	32
   164   000855  0055               	dw	85
   165   000857  0053               	dw	83
   166   000859  0042               	dw	66
   167   00085B  0020               	dw	32
   168   00085D  0048               	dw	72
   169   00085F  0049               	dw	73
   170   000861  0044               	dw	68
   171   000863  0020               	dw	32
   172   000865  0020               	dw	32
   173   000867  0020               	dw	32
   174   000869  0020               	dw	32
   175   00086B                     __end_of_sd002:
   176                           	callstack 0
   177   00086B                     _configDescriptor1:
   178                           	callstack 0
   179   00086B  09                 	db	9
   180   00086C  02                 	db	2
   181   00086D  29                 	db	41
   182   00086E  00                 	db	0
   183   00086F  01                 	db	1
   184   000870  01                 	db	1
   185   000871  00                 	db	0
   186   000872  C0                 	db	192
   187   000873  64                 	db	100
   188   000874  09                 	db	9
   189   000875  04                 	db	4
   190   000876  00                 	db	0
   191   000877  00                 	db	0
   192   000878  02                 	db	2
   193   000879  03                 	db	3
   194   00087A  00                 	db	0
   195   00087B  00                 	db	0
   196   00087C  00                 	db	0
   197   00087D  09                 	db	9
   198   00087E  21                 	db	33
   199   00087F  11                 	db	17
   200   000880  01                 	db	1
   201   000881  00                 	db	0
   202   000882  01                 	db	1
   203   000883  22                 	db	34
   204   000884  1D                 	db	29
   205   000885  00                 	db	0
   206   000886  07                 	db	7
   207   000887  05                 	db	5
   208   000888  81                 	db	129
   209   000889  03                 	db	3
   210   00088A  40                 	db	64
   211   00088B  00                 	db	0
   212   00088C  01                 	db	1
   213   00088D  07                 	db	7
   214   00088E  05                 	db	5
   215   00088F  01                 	db	1
   216   000890  03                 	db	3
   217   000891  40                 	db	64
   218   000892  00                 	db	0
   219   000893  01                 	db	1
   220   000894                     __end_of_configDescriptor1:
   221                           	callstack 0
   222   000894                     _hid_rpt01:
   223                           	callstack 0
   224   000894  06                 	db	6
   225   000895  00                 	db	0
   226   000896  FF                 	db	255
   227   000897  09                 	db	9
   228   000898  01                 	db	1
   229   000899  A1                 	db	161
   230   00089A  01                 	db	1
   231   00089B  19                 	db	25
   232   00089C  01                 	db	1
   233   00089D  29                 	db	41
   234   00089E  40                 	db	64
   235   00089F  15                 	db	21
   236   0008A0  00                 	db	0
   237   0008A1  26                 	db	38
   238   0008A2  FF                 	db	255
   239   0008A3  00                 	db	0
   240   0008A4  75                 	db	117
   241   0008A5  08                 	db	8
   242   0008A6  95                 	db	149
   243   0008A7  40                 	db	64
   244   0008A8  81                 	db	129
   245   0008A9  00                 	db	0
   246   0008AA  19                 	db	25
   247   0008AB  01                 	db	1
   248   0008AC  29                 	db	41
   249   0008AD  40                 	db	64
   250   0008AE  91                 	db	145
   251   0008AF  00                 	db	0
   252   0008B0  C0                 	db	192
   253   0008B1                     __end_of_hid_rpt01:
   254                           	callstack 0
   255   0008B1                     _device_dsc:
   256                           	callstack 0
   257   0008B1  12                 	db	18
   258   0008B2  01                 	db	1
   259   0008B3  0200               	dw	512
   260   0008B5  00                 	db	0
   261   0008B6  00                 	db	0
   262   0008B7  00                 	db	0
   263   0008B8  08                 	db	8
   264   0008B9  04DA               	dw	1242
   265   0008BB  0042               	dw	66
   266   0008BD  0100               	dw	256
   267   0008BF  01                 	db	1
   268   0008C0  02                 	db	2
   269   0008C1  00                 	db	0
   270   0008C2  01                 	db	1
   271   0008C3                     __end_of_device_dsc:
   272                           	callstack 0
   273   0008C3                     _sd000:
   274                           	callstack 0
   275   0008C3  04                 	db	4
   276   0008C4  03                 	db	3
   277   0008C5  0409               	dw	1033
   278   0008C7                     __end_of_sd000:
   279                           	callstack 0
   280   000000                     _PIR1bits	set	3998
   281   000000                     _IPR1bits	set	3999
   282   000000                     _USTAT	set	3948
   283   000000                     _UADDR	set	3950
   284   000000                     _UCONbits	set	3949
   285   000000                     _UIE	set	3945
   286   000000                     _UEIE	set	3947
   287   000000                     _UCFG	set	3951
   288   000000                     _UEP0	set	3952
   289   000000                     _T2CONbits	set	4042
   290   000000                     _UEP0bits	set	3952
   291   000000                     _UCON	set	3949
   292   000000                     _UIEbits	set	3945
   293   000000                     _UIRbits	set	3944
   294   000000                     _UIR	set	3944
   295   000000                     _UEIR	set	3946
   296   000000                     _PIE2bits	set	4000
   297   000000                     _T2CON	set	4042
   298   000000                     _PR2	set	4043
   299   000000                     _IPR2bits	set	4002
   300   000000                     _RCONbits	set	4048
   301   000000                     _PIR2bits	set	4001
   302   000000                     _LATCbits	set	3979
   303   000000                     _TRISCbits	set	3988
   304   000000                     _UEP1	set	3953
   305   000000                     _INTCONbits	set	4082
   306   000000                     _PIE1bits	set	3997
   307   0008C7  00                 	db	0	; dummy byte at the end
   308   000000                     
   309                           ; #config settings
   310                           
   311                           	psect	cinit
   312   0026D4                     __pcinit:
   313                           	callstack 0
   314   0026D4                     start_initialization:
   315                           	callstack 0
   316   0026D4                     __initialization:
   317                           	callstack 0
   318                           
   319                           ; Clear objects allocated to BANK0 (26 bytes)
   320   0026D4  EE00  F060         	lfsr	0,__pbssBANK0
   321   0026D8  0E1A               	movlw	26
   322   0026DA                     clear_0:
   323   0026DA  6AEE               	clrf	postinc0,c
   324   0026DC  06E8               	decf	wreg,f,c
   325   0026DE  E1FD               	bnz	clear_0
   326                           
   327                           ; Clear objects allocated to COMRAM (38 bytes)
   328   0026E0  EE00  F02A         	lfsr	0,__pbssCOMRAM
   329   0026E4  0E26               	movlw	38
   330   0026E6                     clear_1:
   331   0026E6  6AEE               	clrf	postinc0,c
   332   0026E8  06E8               	decf	wreg,f,c
   333   0026EA  E1FD               	bnz	clear_1
   334   0026EC                     end_of_initialization:
   335                           	callstack 0
   336   0026EC                     __end_of__initialization:
   337                           	callstack 0
   338   0026EC  9050               	bcf	int$flags,0,c	;clear compiler interrupt flag (level 1)
   339   0026EE  9250               	bcf	int$flags,1,c	;clear compiler interrupt flag (level 2)
   340   0026F0  0E00               	movlw	low (__Lmediumconst shr (0+16))
   341   0026F2  6EF8               	movwf	tblptru,c
   342   0026F4  0100               	movlb	0
   343   0026F6  EFE8  F011         	goto	_main	;jump to C main() function
   344                           
   345                           	psect	bssCOMRAM
   346   00002A                     __pbssCOMRAM:
   347                           	callstack 0
   348   00002A                     _USB1msTickCount:
   349                           	callstack 0
   350   00002A                     	ds	4
   351   00002E                     _count:
   352                           	callstack 0
   353   00002E                     	ds	2
   354   000030                     _USBInHandle:
   355                           	callstack 0
   356   000030                     	ds	2
   357   000032                     _USBOutHandle:
   358                           	callstack 0
   359   000032                     	ds	2
   360   000034                     _pDst:
   361                           	callstack 0
   362   000034                     	ds	2
   363   000036                     _pBDTEntryEP0OutNext:
   364                           	callstack 0
   365   000036                     	ds	2
   366   000038                     _pBDTEntryEP0OutCurrent:
   367                           	callstack 0
   368   000038                     	ds	2
   369   00003A                     _duty_B:
   370                           	callstack 0
   371   00003A                     	ds	1
   372   00003B                     _duty_G:
   373                           	callstack 0
   374   00003B                     	ds	1
   375   00003C                     _duty_R:
   376                           	callstack 0
   377   00003C                     	ds	1
   378   00003D                     _USBTicksSinceSuspendEnd:
   379                           	callstack 0
   380   00003D                     	ds	1
   381   00003E                     _USBDeferOUTDataStagePackets:
   382                           	callstack 0
   383   00003E                     	ds	1
   384   00003F                     _USBDeferINDataStagePackets:
   385                           	callstack 0
   386   00003F                     	ds	1
   387   000040                     _USBStatusStageEnabledFlag2:
   388                           	callstack 0
   389   000040                     	ds	1
   390   000041                     _USBStatusStageEnabledFlag1:
   391                           	callstack 0
   392   000041                     	ds	1
   393   000042                     _USBDeferStatusStagePacket:
   394                           	callstack 0
   395   000042                     	ds	1
   396   000043                     _USBStatusStageTimeoutCounter:
   397                           	callstack 0
   398   000043                     	ds	1
   399   000044                     _BothEP0OutUOWNsSet:
   400                           	callstack 0
   401   000044                     	ds	1
   402   000045                     _endpoint_number:
   403                           	callstack 0
   404   000045                     	ds	1
   405   000046                     _USBBusIsSuspended:
   406                           	callstack 0
   407   000046                     	ds	1
   408   000047                     _RemoteWakeup:
   409                           	callstack 0
   410   000047                     	ds	1
   411   000048                     _controlTransferState:
   412                           	callstack 0
   413   000048                     	ds	1
   414   000049                     _shortPacketStatus:
   415                           	callstack 0
   416   000049                     	ds	1
   417   00004A                     _USBDeviceState:
   418                           	callstack 0
   419   00004A                     	ds	1
   420   00004B                     _active_protocol:
   421                           	callstack 0
   422   00004B                     	ds	1
   423   00004C                     _idle_rate:
   424                           	callstack 0
   425   00004C                     	ds	1
   426   00004D                     _USTATcopy:
   427                           	callstack 0
   428   00004D                     	ds	1
   429   00004E                     _USBAlternateInterface:
   430                           	callstack 0
   431   00004E                     	ds	1
   432   00004F                     _USBActiveConfiguration:
   433                           	callstack 0
   434   00004F                     	ds	1
   435                           
   436                           	psect	bssBANK0
   437   000060                     __pbssBANK0:
   438                           	callstack 0
   439   000060                     _outPipes:
   440                           	callstack 0
   441   000060                     	ds	8
   442   000068                     _inPipes:
   443                           	callstack 0
   444   000068                     	ds	6
   445   00006E                     _pBDTEntryIn:
   446                           	callstack 0
   447   00006E                     	ds	4
   448   000072                     _pBDTEntryOut:
   449                           	callstack 0
   450   000072                     	ds	4
   451   000076                     _ep_data_out:
   452                           	callstack 0
   453   000076                     	ds	2
   454   000078                     _ep_data_in:
   455                           	callstack 0
   456   000078                     	ds	2
   457                           
   458                           	psect	cstackBANK0
   459   00007A                     __pcstackBANK0:
   460                           	callstack 0
   461   00007A                     ??_Update_PWM:
   462                           
   463                           ; 1 bytes @ 0x0
   464   00007A                     	ds	2
   465   00007C                     ??_pwm_low_priority:
   466                           
   467                           ; 1 bytes @ 0x2
   468   00007C                     	ds	3
   469   00007F                     ?_USBTransferOnePacket:
   470                           	callstack 0
   471   00007F                     USBTransferOnePacket@dir:
   472                           	callstack 0
   473   00007F                     PIC18F4550_Initialize@state:
   474                           	callstack 0
   475   00007F                     Update_Duty@green_Duty:
   476                           	callstack 0
   477   00007F                     memset@p1:
   478                           	callstack 0
   479                           
   480                           ; 2 bytes @ 0x5
   481   00007F                     	ds	1
   482   000080                     Update_Duty@blue_Duty:
   483                           	callstack 0
   484   000080                     USBTransferOnePacket@data:
   485                           	callstack 0
   486                           
   487                           ; 2 bytes @ 0x6
   488   000080                     	ds	1
   489   000081                     Update_Duty@red_Duty:
   490                           	callstack 0
   491   000081                     memset@c:
   492                           	callstack 0
   493                           
   494                           ; 2 bytes @ 0x7
   495   000081                     	ds	1
   496   000082                     USBTransferOnePacket@len:
   497                           	callstack 0
   498                           
   499                           ; 1 bytes @ 0x8
   500   000082                     	ds	1
   501   000083                     ??_USBTransferOnePacket:
   502   000083                     memset@n:
   503                           	callstack 0
   504                           
   505                           ; 2 bytes @ 0x9
   506   000083                     	ds	2
   507   000085                     memset@p:
   508                           	callstack 0
   509                           
   510                           ; 2 bytes @ 0xB
   511   000085                     	ds	2
   512   000087                     USBDeviceInit@i:
   513                           	callstack 0
   514   000087                     USBTransferOnePacket@ep:
   515                           	callstack 0
   516                           
   517                           ; 1 bytes @ 0xD
   518   000087                     	ds	1
   519   000088                     USBTransferOnePacket@handle:
   520                           	callstack 0
   521                           
   522                           ; 2 bytes @ 0xE
   523   000088                     	ds	2
   524   00008A                     
   525                           ; 1 bytes @ 0x10
   526                           
   527                           	psect	cstackCOMRAM
   528   000001                     __pcstackCOMRAM:
   529                           	callstack 0
   530   000001                     ??_USBStdGetDscHandler:
   531   000001                     ??_USBStdGetStatusHandler:
   532   000001                     ?i2_USBTransferOnePacket:
   533                           	callstack 0
   534   000001                     USBConfigureEndpoint@direction:
   535                           	callstack 0
   536   000001                     USBCtrlTrfTxService@byteToSend:
   537                           	callstack 0
   538   000001                     USBCtrlTrfRxService@i:
   539                           	callstack 0
   540   000001                     i2USBTransferOnePacket@dir:
   541                           	callstack 0
   542   000001                     i2PIC18F4550_Initialize@state:
   543                           	callstack 0
   544   000001                     memcpy@d1:
   545                           	callstack 0
   546   000001                     i2memset@p1:
   547                           	callstack 0
   548                           
   549                           ; 2 bytes @ 0x0
   550   000001                     	ds	1
   551   000002                     ??_USBConfigureEndpoint:
   552   000002                     USBCtrlTrfRxService@byteToRead:
   553                           	callstack 0
   554   000002                     USBCtrlTrfInHandler@lastDTS:
   555                           	callstack 0
   556   000002                     USBStdGetStatusHandler@p:
   557                           	callstack 0
   558   000002                     i2USBTransferOnePacket@data:
   559                           	callstack 0
   560                           
   561                           ; 2 bytes @ 0x1
   562   000002                     	ds	1
   563   000003                     memcpy@s1:
   564                           	callstack 0
   565   000003                     i2memset@c:
   566                           	callstack 0
   567                           
   568                           ; 2 bytes @ 0x2
   569   000003                     	ds	1
   570   000004                     i2USBTransferOnePacket@len:
   571                           	callstack 0
   572                           
   573                           ; 1 bytes @ 0x3
   574   000004                     	ds	1
   575   000005                     ??i2_USBTransferOnePacket:
   576   000005                     memcpy@n:
   577                           	callstack 0
   578   000005                     i2memset@n:
   579                           	callstack 0
   580                           
   581                           ; 2 bytes @ 0x4
   582   000005                     	ds	2
   583   000007                     memcpy@d:
   584                           	callstack 0
   585   000007                     i2memset@p:
   586                           	callstack 0
   587                           
   588                           ; 2 bytes @ 0x6
   589   000007                     	ds	1
   590   000008                     USBConfigureEndpoint@EPNum:
   591                           	callstack 0
   592                           
   593                           ; 1 bytes @ 0x7
   594   000008                     	ds	1
   595   000009                     i2USBDeviceInit@i:
   596                           	callstack 0
   597   000009                     i2USBTransferOnePacket@ep:
   598                           	callstack 0
   599   000009                     USBConfigureEndpoint@handle:
   600                           	callstack 0
   601   000009                     memcpy@s:
   602                           	callstack 0
   603                           
   604                           ; 2 bytes @ 0x8
   605   000009                     	ds	1
   606   00000A                     i2USBTransferOnePacket@handle:
   607                           	callstack 0
   608                           
   609                           ; 2 bytes @ 0x9
   610   00000A                     	ds	1
   611   00000B                     USBEnableEndpoint@options:
   612                           	callstack 0
   613   00000B                     memcpy@tmp:
   614                           	callstack 0
   615                           
   616                           ; 1 bytes @ 0xA
   617   00000B                     	ds	1
   618   00000C                     USBEnableEndpoint@p:
   619                           	callstack 0
   620                           
   621                           ; 2 bytes @ 0xB
   622   00000C                     	ds	2
   623   00000E                     USBEnableEndpoint@ep:
   624                           	callstack 0
   625                           
   626                           ; 1 bytes @ 0xD
   627   00000E                     	ds	1
   628   00000F                     USER_USB_CALLBACK_EVENT_HANDLER@event:
   629                           	callstack 0
   630                           
   631                           ; 2 bytes @ 0xE
   632   00000F                     	ds	2
   633   000011                     USER_USB_CALLBACK_EVENT_HANDLER@pdata:
   634                           	callstack 0
   635                           
   636                           ; 2 bytes @ 0x10
   637   000011                     	ds	2
   638   000013                     USER_USB_CALLBACK_EVENT_HANDLER@size:
   639                           	callstack 0
   640                           
   641                           ; 2 bytes @ 0x12
   642   000013                     	ds	2
   643   000015                     ??_USER_USB_CALLBACK_EVENT_HANDLER:
   644                           
   645                           ; 1 bytes @ 0x14
   646   000015                     	ds	2
   647   000017                     ??_USBStdFeatureReqHandler:
   648   000017                     USBStdSetCfgHandler@i:
   649                           	callstack 0
   650                           
   651                           ; 1 bytes @ 0x16
   652   000017                     	ds	2
   653   000019                     USBStdFeatureReqHandler@pUEP:
   654                           	callstack 0
   655                           
   656                           ; 2 bytes @ 0x18
   657   000019                     	ds	2
   658   00001B                     USBStdFeatureReqHandler@current_ep_data:
   659                           	callstack 0
   660                           
   661                           ; 1 bytes @ 0x1A
   662   00001B                     	ds	1
   663   00001C                     USBStdFeatureReqHandler@p:
   664                           	callstack 0
   665                           
   666                           ; 2 bytes @ 0x1B
   667   00001C                     	ds	2
   668   00001E                     ??_USBCtrlEPService:
   669   00001E                     
   670                           ; 1 bytes @ 0x1D
   671   00001E                     	ds	1
   672   00001F                     USBDeviceTasks@i:
   673                           	callstack 0
   674                           
   675                           ; 1 bytes @ 0x1E
   676   00001F                     	ds	1
   677   000020                     ??_SYS_InterruptHigh:
   678                           
   679                           ; 1 bytes @ 0x1F
   680   000020                     	ds	10
   681                           
   682 ;;
   683 ;;Main: autosize = 0, tempsize = 0, incstack = 0, save=0
   684 ;;
   685 ;; *************** function _main *****************
   686 ;; Defined at:
   687 ;;		line 66 in file "main.c"
   688 ;; Parameters:    Size  Location     Type
   689 ;;		None
   690 ;; Auto vars:     Size  Location     Type
   691 ;;		None
   692 ;; Return value:  Size  Location     Type
   693 ;;                  1    wreg      void 
   694 ;; Registers used:
   695 ;;		wreg, fsr2l, fsr2h, status,2, status,0, prodl, prodh, cstack
   696 ;; Tracked objects:
   697 ;;		On entry : 0/0
   698 ;;		On exit  : 0/0
   699 ;;		Unchanged: 0/0
   700 ;; Data sizes:     COMRAM   BANK0   BANK1   BANK2   BANK3   BANK4   BANK5   BANK6   BANK7
   701 ;;      Params:         0       0       0       0       0       0       0       0       0
   702 ;;      Locals:         0       0       0       0       0       0       0       0       0
   703 ;;      Temps:          0       0       0       0       0       0       0       0       0
   704 ;;      Totals:         0       0       0       0       0       0       0       0       0
   705 ;;Total ram usage:        0 bytes
   706 ;; Hardware stack levels required when called: 14
   707 ;; This function calls:
   708 ;;		_Init_PWM
   709 ;;		_PIC18F4550_Initialize
   710 ;;		_USBDeviceAttach
   711 ;;		_USBDeviceInit
   712 ;;		_USBTransferOnePacket
   713 ;;		_Update_Duty
   714 ;; This function is called by:
   715 ;;		Startup code after reset
   716 ;; This function uses a non-reentrant model
   717 ;;
   718                           
   719                           	psect	text0
   720   0023D0                     __ptext0:
   721                           	callstack 0
   722   0023D0                     _main:
   723                           	callstack 17
   724   0023D0                     
   725                           ;main.c: 68: PIC18F4550_Initialize(PIC18F4550_USB_START);
   726   0023D0  0E00               	movlw	0
   727   0023D2  EC7D  F013         	call	_PIC18F4550_Initialize
   728   0023D6                     
   729                           ;main.c: 69: USBDeviceInit();
   730   0023D6  EC5F  F00A         	call	_USBDeviceInit	;wreg free
   731   0023DA                     
   732                           ;main.c: 70: USBDeviceAttach();
   733   0023DA  EC90  F012         	call	_USBDeviceAttach	;wreg free
   734   0023DE                     
   735                           ;main.c: 72: Init_PWM();
   736   0023DE  EC3D  F013         	call	_Init_PWM	;wreg free
   737   0023E2                     l3876:
   738                           
   739                           ;main.c: 75: {;main.c: 76: USBOutHandle = USBTransferOnePacket(1,0,(uint8_t*)&ReceivedDa
      +                          taBuffer[0],64);
   740   0023E2  0E00               	movlw	0
   741   0023E4  0100               	movlb	0	; () banked
   742   0023E6  6F7F               	movwf	USBTransferOnePacket@dir& (0+255),b
   743   0023E8  0E00               	movlw	0
   744   0023EA  6F80               	movwf	USBTransferOnePacket@data& (0+255),b
   745   0023EC  0E05               	movlw	5
   746   0023EE  6F81               	movwf	(USBTransferOnePacket@data+1)& (0+255),b
   747   0023F0  0E40               	movlw	64
   748   0023F2  6F82               	movwf	USBTransferOnePacket@len& (0+255),b
   749   0023F4  0E01               	movlw	1
   750   0023F6  EC1D  F009         	call	_USBTransferOnePacket
   751   0023FA  C07F  F032         	movff	?_USBTransferOnePacket,_USBOutHandle
   752   0023FE  C080  F033         	movff	?_USBTransferOnePacket+1,_USBOutHandle+1
   753   002402                     
   754                           ;main.c: 79: if(ReceivedDataBuffer[3]==1)
   755   002402  0105               	movlb	5	; () banked
   756   002404  0503               	decf	3,w,b
   757   002406  A4D8               	btfss	status,2,c
   758   002408  EF08  F012         	goto	u2841
   759   00240C  EF0A  F012         	goto	u2840
   760   002410                     u2841:
   761   002410  EFF1  F011         	goto	l3876
   762   002414                     u2840:
   763   002414                     
   764                           ; BSR set to: 5
   765                           ;main.c: 80: {;main.c: 81: Update_Duty(ReceivedDataBuffer[0],ReceivedDataBuffer[1],Recei
      +                          vedDataBuffer[2]);
   766   002414  C501 F07F          	movff	1281,Update_Duty@green_Duty
   767   002418  C502 F080          	movff	1282,Update_Duty@blue_Duty
   768   00241C  5100               	movf	0,w,b
   769   00241E  ECA1  F013         	call	_Update_Duty
   770   002422  EFF1  F011         	goto	l3876
   771   002426  EF25  F000         	goto	start
   772   00242A                     __end_of_main:
   773                           	callstack 0
   774                           
   775 ;; *************** function _Update_Duty *****************
   776 ;; Defined at:
   777 ;;		line 132 in file "system.c"
   778 ;; Parameters:    Size  Location     Type
   779 ;;  red_Duty        1    wreg     volatile unsigned char 
   780 ;;  green_Duty      1    5[BANK0 ] volatile unsigned char 
   781 ;;  blue_Duty       1    6[BANK0 ] volatile unsigned char 
   782 ;; Auto vars:     Size  Location     Type
   783 ;;  red_Duty        1    7[BANK0 ] volatile unsigned char 
   784 ;; Return value:  Size  Location     Type
   785 ;;                  1    wreg      void 
   786 ;; Registers used:
   787 ;;		wreg, status,2, status,0
   788 ;; Tracked objects:
   789 ;;		On entry : 0/0
   790 ;;		On exit  : 0/0
   791 ;;		Unchanged: 0/0
   792 ;; Data sizes:     COMRAM   BANK0   BANK1   BANK2   BANK3   BANK4   BANK5   BANK6   BANK7
   793 ;;      Params:         0       2       0       0       0       0       0       0       0
   794 ;;      Locals:         0       1       0       0       0       0       0       0       0
   795 ;;      Temps:          0       0       0       0       0       0       0       0       0
   796 ;;      Totals:         0       3       0       0       0       0       0       0       0
   797 ;;Total ram usage:        3 bytes
   798 ;; Hardware stack levels used: 1
   799 ;; Hardware stack levels required when called: 12
   800 ;; This function calls:
   801 ;;		Nothing
   802 ;; This function is called by:
   803 ;;		_main
   804 ;; This function uses a non-reentrant model
   805 ;;
   806                           
   807                           	psect	text1
   808   002742                     __ptext1:
   809                           	callstack 0
   810   002742                     _Update_Duty:
   811                           	callstack 18
   812                           
   813                           ;incstack = 0
   814                           ;Update_Duty@red_Duty stored from wreg
   815   002742  0100               	movlb	0	; () banked
   816   002744  6F81               	movwf	Update_Duty@red_Duty& (0+255),b	;volatile
   817   002746                     
   818                           ;system.c: 134: duty_R = duty_G = duty_B = 0;
   819   002746  0E00               	movlw	0
   820   002748  6E3A               	movwf	_duty_B^0,c	;volatile
   821   00274A  C03A  F03B         	movff	_duty_B,_duty_G	;volatile
   822   00274E  C03B  F03C         	movff	_duty_G,_duty_R	;volatile
   823   002752                     
   824                           ;system.c: 135: duty_R += red_Duty;
   825   002752  0100               	movlb	0	; () banked
   826   002754  5181               	movf	Update_Duty@red_Duty& (0+255),w,b	;volatile
   827   002756  263C               	addwf	_duty_R^0,f,c	;volatile
   828   002758                     
   829                           ; BSR set to: 0
   830                           ;system.c: 136: duty_G += green_Duty;
   831   002758  517F               	movf	Update_Duty@green_Duty& (0+255),w,b	;volatile
   832   00275A  263B               	addwf	_duty_G^0,f,c	;volatile
   833   00275C                     
   834                           ; BSR set to: 0
   835                           ;system.c: 137: duty_B += blue_Duty;
   836   00275C  5180               	movf	Update_Duty@blue_Duty& (0+255),w,b	;volatile
   837   00275E  263A               	addwf	_duty_B^0,f,c	;volatile
   838   002760                     
   839                           ; BSR set to: 0
   840   002760  0012               	return		;funcret
   841   002762                     __end_of_Update_Duty:
   842                           	callstack 0
   843                           
   844 ;; *************** function _USBTransferOnePacket *****************
   845 ;; Defined at:
   846 ;;		line 997 in file "usb_device.c"
   847 ;; Parameters:    Size  Location     Type
   848 ;;  ep              1    wreg     unsigned char 
   849 ;;  dir             1    5[BANK0 ] unsigned char 
   850 ;;  data            2    6[BANK0 ] PTR unsigned char 
   851 ;;		 -> ReceivedDataBuffer(64), 
   852 ;;  len             1    8[BANK0 ] unsigned char 
   853 ;; Auto vars:     Size  Location     Type
   854 ;;  ep              1   13[BANK0 ] unsigned char 
   855 ;;  handle          2   14[BANK0 ] PTR volatile struct __BD
   856 ;;		 -> RAM(2047), NULL(0), BDT(32), 
   857 ;; Return value:  Size  Location     Type
   858 ;;                  2    5[BANK0 ] PTR void 
   859 ;; Registers used:
   860 ;;		wreg, fsr2l, fsr2h, status,2, status,0, prodl, prodh
   861 ;; Tracked objects:
   862 ;;		On entry : 0/0
   863 ;;		On exit  : 0/0
   864 ;;		Unchanged: 0/0
   865 ;; Data sizes:     COMRAM   BANK0   BANK1   BANK2   BANK3   BANK4   BANK5   BANK6   BANK7
   866 ;;      Params:         0       4       0       0       0       0       0       0       0
   867 ;;      Locals:         0       3       0       0       0       0       0       0       0
   868 ;;      Temps:          0       4       0       0       0       0       0       0       0
   869 ;;      Totals:         0      11       0       0       0       0       0       0       0
   870 ;;Total ram usage:       11 bytes
   871 ;; Hardware stack levels used: 1
   872 ;; Hardware stack levels required when called: 12
   873 ;; This function calls:
   874 ;;		Nothing
   875 ;; This function is called by:
   876 ;;		_main
   877 ;; This function uses a non-reentrant model
   878 ;;
   879                           
   880                           	psect	text2
   881   00123A                     __ptext2:
   882                           	callstack 0
   883   00123A                     _USBTransferOnePacket:
   884                           	callstack 18
   885                           
   886                           ; BSR set to: 0
   887                           ;incstack = 0
   888                           ;USBTransferOnePacket@ep stored from wreg
   889   00123A  0100               	movlb	0	; () banked
   890   00123C  6F87               	movwf	USBTransferOnePacket@ep& (0+255),b
   891   00123E                     
   892                           ;usb_device.c: 999: volatile BDT_ENTRY* handle;;usb_device.c: 1002: if(dir != 0)
   893   00123E  0100               	movlb	0	; () banked
   894   001240  517F               	movf	USBTransferOnePacket@dir& (0+255),w,b
   895   001242  B4D8               	btfsc	status,2,c
   896   001244  EF26  F009         	goto	u2621
   897   001248  EF28  F009         	goto	u2620
   898   00124C                     u2621:
   899   00124C  EF36  F009         	goto	l3590
   900   001250                     u2620:
   901   001250                     
   902                           ; BSR set to: 0
   903                           ;usb_device.c: 1003: {;usb_device.c: 1005: handle = pBDTEntryIn[ep];
   904   001250  5187               	movf	USBTransferOnePacket@ep& (0+255),w,b
   905   001252  0D02               	mullw	2
   906   001254  0E6E               	movlw	low _pBDTEntryIn
   907   001256  24F3               	addwf	243,w,c
   908   001258  6ED9               	movwf	fsr2l,c
   909   00125A  0E00               	movlw	high _pBDTEntryIn
   910   00125C  20F4               	addwfc	prodh,w,c
   911   00125E  6EDA               	movwf	fsr2h,c
   912   001260  CFDE F088          	movff	postinc2,USBTransferOnePacket@handle
   913   001264  CFDD F089          	movff	postdec2,USBTransferOnePacket@handle+1
   914                           
   915                           ;usb_device.c: 1006: }
   916   001268  EF42  F009         	goto	l3592
   917   00126C                     l3590:
   918                           
   919                           ; BSR set to: 0
   920                           ;usb_device.c: 1007: else;usb_device.c: 1008: {;usb_device.c: 1010: handle = pBDTEntryOu
      +                          t[ep];
   921   00126C  5187               	movf	USBTransferOnePacket@ep& (0+255),w,b
   922   00126E  0D02               	mullw	2
   923   001270  0E72               	movlw	low _pBDTEntryOut
   924   001272  24F3               	addwf	243,w,c
   925   001274  6ED9               	movwf	fsr2l,c
   926   001276  0E00               	movlw	high _pBDTEntryOut
   927   001278  20F4               	addwfc	prodh,w,c
   928   00127A  6EDA               	movwf	fsr2h,c
   929   00127C  CFDE F088          	movff	postinc2,USBTransferOnePacket@handle
   930   001280  CFDD F089          	movff	postdec2,USBTransferOnePacket@handle+1
   931   001284                     l3592:
   932                           
   933                           ; BSR set to: 0
   934                           ;usb_device.c: 1011: };usb_device.c: 1015: if(handle == 0)
   935   001284  5188               	movf	USBTransferOnePacket@handle& (0+255),w,b
   936   001286  1189               	iorwf	(USBTransferOnePacket@handle+1)& (0+255),w,b
   937   001288  A4D8               	btfss	status,2,c
   938   00128A  EF49  F009         	goto	u2631
   939   00128E  EF4B  F009         	goto	u2630
   940   001292                     u2631:
   941   001292  EF51  F009         	goto	l3598
   942   001296                     u2630:
   943   001296                     
   944                           ; BSR set to: 0
   945                           ;usb_device.c: 1016: {;usb_device.c: 1017: return 0;
   946   001296  0E00               	movlw	0
   947   001298  6F7F               	movwf	?_USBTransferOnePacket& (0+255),b
   948   00129A  0E00               	movlw	0
   949   00129C  6F80               	movwf	(?_USBTransferOnePacket+1)& (0+255),b
   950   00129E  EFBD  F009         	goto	l197
   951   0012A2                     l3598:
   952                           
   953                           ; BSR set to: 0
   954                           ;usb_device.c: 1018: };usb_device.c: 1031: handle->ADR = ((uint16_t)(data));
   955   0012A2  EE20 F002          	lfsr	2,2
   956   0012A6  5188               	movf	USBTransferOnePacket@handle& (0+255),w,b
   957   0012A8  26D9               	addwf	fsr2l,f,c
   958   0012AA  5189               	movf	(USBTransferOnePacket@handle+1)& (0+255),w,b
   959   0012AC  22DA               	addwfc	fsr2h,f,c
   960   0012AE  C080  FFDE         	movff	USBTransferOnePacket@data,postinc2
   961   0012B2  C081  FFDD         	movff	USBTransferOnePacket@data+1,postdec2
   962                           
   963                           ;usb_device.c: 1032: handle->CNT = len;
   964   0012B6  EE20 F001          	lfsr	2,1
   965   0012BA  5188               	movf	USBTransferOnePacket@handle& (0+255),w,b
   966   0012BC  26D9               	addwf	fsr2l,f,c
   967   0012BE  5189               	movf	(USBTransferOnePacket@handle+1)& (0+255),w,b
   968   0012C0  22DA               	addwfc	fsr2h,f,c
   969   0012C2  C082  FFDF         	movff	USBTransferOnePacket@len,indf2
   970   0012C6                     
   971                           ; BSR set to: 0
   972                           ;usb_device.c: 1033: handle->STAT.Val &= 0x40;
   973   0012C6  C088  FFD9         	movff	USBTransferOnePacket@handle,fsr2l
   974   0012CA  C089  FFDA         	movff	USBTransferOnePacket@handle+1,fsr2h
   975   0012CE  0E40               	movlw	64
   976   0012D0  16DF               	andwf	indf2,f,c
   977   0012D2                     
   978                           ; BSR set to: 0
   979                           ;usb_device.c: 1034: handle->STAT.Val |= (0x08 & 0x08);
   980   0012D2  C088  FFD9         	movff	USBTransferOnePacket@handle,fsr2l
   981   0012D6  C089  FFDA         	movff	USBTransferOnePacket@handle+1,fsr2h
   982   0012DA  0E00               	movlw	0
   983   0012DC  86DB               	bsf	plusw2,3,c
   984   0012DE                     
   985                           ; BSR set to: 0
   986                           ;usb_device.c: 1035: handle->STAT.Val |= 0x80;
   987   0012DE  C088  FFD9         	movff	USBTransferOnePacket@handle,fsr2l
   988   0012E2  C089  FFDA         	movff	USBTransferOnePacket@handle+1,fsr2h
   989   0012E6  0E00               	movlw	0
   990   0012E8  8EDB               	bsf	plusw2,7,c
   991   0012EA                     
   992                           ; BSR set to: 0
   993                           ;usb_device.c: 1038: if(dir != 0)
   994   0012EA  517F               	movf	USBTransferOnePacket@dir& (0+255),w,b
   995   0012EC  B4D8               	btfsc	status,2,c
   996   0012EE  EF7B  F009         	goto	u2641
   997   0012F2  EF7D  F009         	goto	u2640
   998   0012F6                     u2641:
   999   0012F6  EF9C  F009         	goto	l3610
  1000   0012FA                     u2640:
  1001   0012FA                     
  1002                           ; BSR set to: 0
  1003                           ;usb_device.c: 1039: {;usb_device.c: 1041: pBDTEntryIn[ep] = (BDT_ENTRY*)(((uintptr_t)pB
      +                          DTEntryIn[ep]) ^ 0x0004);
  1004   0012FA  5187               	movf	USBTransferOnePacket@ep& (0+255),w,b
  1005   0012FC  0D02               	mullw	2
  1006   0012FE  0E6E               	movlw	low _pBDTEntryIn
  1007   001300  24F3               	addwf	243,w,c
  1008   001302  6ED9               	movwf	fsr2l,c
  1009   001304  0E00               	movlw	high _pBDTEntryIn
  1010   001306  20F4               	addwfc	prodh,w,c
  1011   001308  6EDA               	movwf	fsr2h,c
  1012   00130A  CFDE F083          	movff	postinc2,??_USBTransferOnePacket
  1013   00130E  CFDD F084          	movff	postdec2,??_USBTransferOnePacket+1
  1014   001312  0E04               	movlw	4
  1015   001314  1983               	xorwf	??_USBTransferOnePacket& (0+255),w,b
  1016   001316  6F85               	movwf	(??_USBTransferOnePacket+2)& (0+255),b
  1017   001318  5184               	movf	(??_USBTransferOnePacket+1)& (0+255),w,b
  1018   00131A  6F86               	movwf	(??_USBTransferOnePacket+3)& (0+255),b
  1019   00131C  5187               	movf	USBTransferOnePacket@ep& (0+255),w,b
  1020   00131E  0D02               	mullw	2
  1021   001320  0E6E               	movlw	low _pBDTEntryIn
  1022   001322  24F3               	addwf	243,w,c
  1023   001324  6ED9               	movwf	fsr2l,c
  1024   001326  0E00               	movlw	high _pBDTEntryIn
  1025   001328  20F4               	addwfc	prodh,w,c
  1026   00132A  6EDA               	movwf	fsr2h,c
  1027   00132C  C085  FFDE         	movff	??_USBTransferOnePacket+2,postinc2
  1028   001330  C086  FFDD         	movff	??_USBTransferOnePacket+3,postdec2
  1029                           
  1030                           ;usb_device.c: 1042: }
  1031   001334  EFB9  F009         	goto	l3612
  1032   001338                     l3610:
  1033                           
  1034                           ; BSR set to: 0
  1035                           ;usb_device.c: 1043: else;usb_device.c: 1044: {;usb_device.c: 1046: pBDTEntryOut[ep] = (
      +                          BDT_ENTRY*)(((uintptr_t)pBDTEntryOut[ep]) ^ 0x0004);
  1036   001338  5187               	movf	USBTransferOnePacket@ep& (0+255),w,b
  1037   00133A  0D02               	mullw	2
  1038   00133C  0E72               	movlw	low _pBDTEntryOut
  1039   00133E  24F3               	addwf	243,w,c
  1040   001340  6ED9               	movwf	fsr2l,c
  1041   001342  0E00               	movlw	high _pBDTEntryOut
  1042   001344  20F4               	addwfc	prodh,w,c
  1043   001346  6EDA               	movwf	fsr2h,c
  1044   001348  CFDE F083          	movff	postinc2,??_USBTransferOnePacket
  1045   00134C  CFDD F084          	movff	postdec2,??_USBTransferOnePacket+1
  1046   001350  0E04               	movlw	4
  1047   001352  1983               	xorwf	??_USBTransferOnePacket& (0+255),w,b
  1048   001354  6F85               	movwf	(??_USBTransferOnePacket+2)& (0+255),b
  1049   001356  5184               	movf	(??_USBTransferOnePacket+1)& (0+255),w,b
  1050   001358  6F86               	movwf	(??_USBTransferOnePacket+3)& (0+255),b
  1051   00135A  5187               	movf	USBTransferOnePacket@ep& (0+255),w,b
  1052   00135C  0D02               	mullw	2
  1053   00135E  0E72               	movlw	low _pBDTEntryOut
  1054   001360  24F3               	addwf	243,w,c
  1055   001362  6ED9               	movwf	fsr2l,c
  1056   001364  0E00               	movlw	high _pBDTEntryOut
  1057   001366  20F4               	addwfc	prodh,w,c
  1058   001368  6EDA               	movwf	fsr2h,c
  1059   00136A  C085  FFDE         	movff	??_USBTransferOnePacket+2,postinc2
  1060   00136E  C086  FFDD         	movff	??_USBTransferOnePacket+3,postdec2
  1061   001372                     l3612:
  1062                           
  1063                           ; BSR set to: 0
  1064                           ;usb_device.c: 1047: };usb_device.c: 1048: return (void*)handle;
  1065   001372  C088  F07F         	movff	USBTransferOnePacket@handle,?_USBTransferOnePacket
  1066   001376  C089  F080         	movff	USBTransferOnePacket@handle+1,?_USBTransferOnePacket+1
  1067   00137A                     l197:
  1068                           
  1069                           ; BSR set to: 0
  1070   00137A  0012               	return		;funcret
  1071   00137C                     __end_of_USBTransferOnePacket:
  1072                           	callstack 0
  1073                           
  1074 ;; *************** function _USBDeviceInit *****************
  1075 ;; Defined at:
  1076 ;;		line 279 in file "usb_device.c"
  1077 ;; Parameters:    Size  Location     Type
  1078 ;;		None
  1079 ;; Auto vars:     Size  Location     Type
  1080 ;;  i               1   13[BANK0 ] unsigned char 
  1081 ;; Return value:  Size  Location     Type
  1082 ;;                  1    wreg      void 
  1083 ;; Registers used:
  1084 ;;		wreg, fsr2l, fsr2h, status,2, status,0, prodl, prodh, cstack
  1085 ;; Tracked objects:
  1086 ;;		On entry : 0/0
  1087 ;;		On exit  : 0/0
  1088 ;;		Unchanged: 0/0
  1089 ;; Data sizes:     COMRAM   BANK0   BANK1   BANK2   BANK3   BANK4   BANK5   BANK6   BANK7
  1090 ;;      Params:         0       0       0       0       0       0       0       0       0
  1091 ;;      Locals:         0       1       0       0       0       0       0       0       0
  1092 ;;      Temps:          0       0       0       0       0       0       0       0       0
  1093 ;;      Totals:         0       1       0       0       0       0       0       0       0
  1094 ;;Total ram usage:        1 bytes
  1095 ;; Hardware stack levels used: 1
  1096 ;; Hardware stack levels required when called: 13
  1097 ;; This function calls:
  1098 ;;		_memset
  1099 ;; This function is called by:
  1100 ;;		_main
  1101 ;; This function uses a non-reentrant model
  1102 ;;
  1103                           
  1104                           	psect	text3
  1105   0014BE                     __ptext3:
  1106                           	callstack 0
  1107   0014BE                     _USBDeviceInit:
  1108                           	callstack 17
  1109   0014BE                     
  1110                           ;usb_device.c: 281: uint8_t i;;usb_device.c: 283: {PIE2bits.USBIE = 0;};
  1111   0014BE  9AA0               	bcf	160,5,c	;volatile
  1112   0014C0                     
  1113                           ;usb_device.c: 287: ;;usb_device.c: 290: {UEIR = 0;};
  1114   0014C0  0E00               	movlw	0
  1115   0014C2  6E6A               	movwf	106,c	;volatile
  1116                           
  1117                           ;usb_device.c: 293: {UIR = 0;};
  1118   0014C4  0E00               	movlw	0
  1119   0014C6  6E68               	movwf	104,c	;volatile
  1120                           
  1121                           ;usb_device.c: 296: UEP0 = 0;
  1122   0014C8  0E00               	movlw	0
  1123   0014CA  6E70               	movwf	112,c	;volatile
  1124   0014CC                     
  1125                           ;usb_device.c: 298: memset((void*)&UEP1,0x00,(1));;
  1126   0014CC  0E71               	movlw	113
  1127   0014CE  0100               	movlb	0	; () banked
  1128   0014D0  6F7F               	movwf	memset@p1& (0+255),b
  1129   0014D2  0E0F               	movlw	15
  1130   0014D4  6F80               	movwf	(memset@p1+1)& (0+255),b
  1131   0014D6  0E00               	movlw	0
  1132   0014D8  6F82               	movwf	(memset@c+1)& (0+255),b
  1133   0014DA  0E00               	movlw	0
  1134   0014DC  6F81               	movwf	memset@c& (0+255),b
  1135   0014DE  0E00               	movlw	0
  1136   0014E0  6F84               	movwf	(memset@n+1)& (0+255),b
  1137   0014E2  0E01               	movlw	1
  1138   0014E4  6F83               	movwf	memset@n& (0+255),b
  1139   0014E6  ECD2  F012         	call	_memset	;wreg free
  1140   0014EA                     
  1141                           ;usb_device.c: 300: { UCFG = 0x10 | 0x00 | 0x04 | 0x02; UEIE = 0x9F; UIE = 0x39 | 0x40 |
      +                           0x02; };
  1142   0014EA  0E16               	movlw	22
  1143   0014EC  6E6F               	movwf	111,c	;volatile
  1144   0014EE  0E9F               	movlw	159
  1145   0014F0  6E6B               	movwf	107,c	;volatile
  1146   0014F2  0E7B               	movlw	123
  1147   0014F4  6E69               	movwf	105,c	;volatile
  1148   0014F6                     
  1149                           ;usb_device.c: 303: ;;usb_device.c: 306: ;;usb_device.c: 309: for(i = 0; i < (sizeof(BDT
      +                          )/sizeof(BDT_ENTRY)); i++)
  1150   0014F6  0E00               	movlw	0
  1151   0014F8  0100               	movlb	0	; () banked
  1152   0014FA  6F87               	movwf	USBDeviceInit@i& (0+255),b
  1153   0014FC                     l3732:
  1154                           
  1155                           ; BSR set to: 0
  1156                           ;usb_device.c: 310: {;usb_device.c: 311: BDT[i].Val = 0x00;
  1157   0014FC  5187               	movf	USBDeviceInit@i& (0+255),w,b
  1158   0014FE  0D04               	mullw	4
  1159   001500  0E00               	movlw	0
  1160   001502  24F3               	addwf	243,w,c
  1161   001504  6ED9               	movwf	fsr2l,c
  1162   001506  0E04               	movlw	4
  1163   001508  20F4               	addwfc	prodh,w,c
  1164   00150A  6EDA               	movwf	fsr2h,c
  1165   00150C  6ADE               	clrf	postinc2,c
  1166   00150E  6ADE               	clrf	postinc2,c
  1167   001510  6ADE               	clrf	postinc2,c
  1168   001512  6ADD               	clrf	postdec2,c
  1169   001514                     
  1170                           ; BSR set to: 0
  1171   001514  2B87               	incf	USBDeviceInit@i& (0+255),f,b
  1172   001516                     
  1173                           ; BSR set to: 0
  1174   001516  0E07               	movlw	7
  1175   001518  6587               	cpfsgt	USBDeviceInit@i& (0+255),b
  1176   00151A  EF91  F00A         	goto	u2691
  1177   00151E  EF93  F00A         	goto	u2690
  1178   001522                     u2691:
  1179   001522  EF7E  F00A         	goto	l3732
  1180   001526                     u2690:
  1181   001526                     
  1182                           ; BSR set to: 0
  1183                           ;usb_device.c: 312: };usb_device.c: 315: UCONbits.PPBRST = 1;
  1184   001526  8C6D               	bsf	109,6,c	;volatile
  1185   001528                     
  1186                           ; BSR set to: 0
  1187                           ;usb_device.c: 318: UADDR = 0x00;
  1188   001528  0E00               	movlw	0
  1189   00152A  6E6E               	movwf	110,c	;volatile
  1190   00152C                     
  1191                           ; BSR set to: 0
  1192                           ;usb_device.c: 321: UCONbits.PKTDIS = 0;
  1193   00152C  986D               	bcf	109,4,c	;volatile
  1194   00152E                     
  1195                           ; BSR set to: 0
  1196                           ;usb_device.c: 324: UCONbits.PPBRST = 0;
  1197   00152E  9C6D               	bcf	109,6,c	;volatile
  1198   001530                     l3744:
  1199                           
  1200                           ; BSR set to: 0
  1201                           ;usb_device.c: 328: {;usb_device.c: 329: (UIR &= 0xF7);
  1202   001530  9668               	bcf	104,3,c	;volatile
  1203   001532                     
  1204                           ; BSR set to: 0
  1205                           ;usb_device.c: 331: inPipes[0].info.Val = 0;
  1206   001532  0E00               	movlw	0
  1207   001534  6F6B               	movwf	(_inPipes+3)& (0+255),b	;volatile
  1208   001536                     
  1209                           ; BSR set to: 0
  1210                           ;usb_device.c: 332: outPipes[0].info.Val = 0;
  1211   001536  0E00               	movlw	0
  1212   001538  6F63               	movwf	(_outPipes+3)& (0+255),b	;volatile
  1213   00153A                     
  1214                           ; BSR set to: 0
  1215                           ;usb_device.c: 333: outPipes[0].wCount.Val = 0;
  1216   00153A  0E00               	movlw	0
  1217   00153C  6F65               	movwf	(_outPipes+5)& (0+255),b	;volatile
  1218   00153E  0E00               	movlw	0
  1219   001540  6F64               	movwf	(_outPipes+4)& (0+255),b	;volatile
  1220   001542                     
  1221                           ; BSR set to: 0
  1222                           ;usb_device.c: 334: }while(UIRbits.TRNIF == 1);
  1223   001542  B668               	btfsc	104,3,c	;volatile
  1224   001544  EFA6  F00A         	goto	u2701
  1225   001548  EFA8  F00A         	goto	u2700
  1226   00154C                     u2701:
  1227   00154C  EF98  F00A         	goto	l3744
  1228   001550                     u2700:
  1229   001550                     
  1230                           ; BSR set to: 0
  1231                           ;usb_device.c: 338: USBStatusStageEnabledFlag1 = 1;
  1232   001550  0E01               	movlw	1
  1233   001552  6E41               	movwf	_USBStatusStageEnabledFlag1^0,c	;volatile
  1234                           
  1235                           ;usb_device.c: 339: USBStatusStageEnabledFlag2 = 1;
  1236   001554  0E01               	movlw	1
  1237   001556  6E40               	movwf	_USBStatusStageEnabledFlag2^0,c	;volatile
  1238                           
  1239                           ;usb_device.c: 341: USBDeferINDataStagePackets = 0;
  1240   001558  0E00               	movlw	0
  1241   00155A  6E3F               	movwf	_USBDeferINDataStagePackets^0,c	;volatile
  1242                           
  1243                           ;usb_device.c: 342: USBDeferOUTDataStagePackets = 0;
  1244   00155C  0E00               	movlw	0
  1245   00155E  6E3E               	movwf	_USBDeferOUTDataStagePackets^0,c	;volatile
  1246                           
  1247                           ;usb_device.c: 343: USBBusIsSuspended = 0;
  1248   001560  0E00               	movlw	0
  1249   001562  6E46               	movwf	_USBBusIsSuspended^0,c	;volatile
  1250                           
  1251                           ;usb_device.c: 347: for(i = 0; i < (uint8_t)(1+1u); i++)
  1252   001564  0E00               	movlw	0
  1253   001566  6F87               	movwf	USBDeviceInit@i& (0+255),b
  1254   001568                     l3760:
  1255                           
  1256                           ; BSR set to: 0
  1257                           ;usb_device.c: 348: {;usb_device.c: 349: pBDTEntryIn[i] = 0u;
  1258   001568  5187               	movf	USBDeviceInit@i& (0+255),w,b
  1259   00156A  0D02               	mullw	2
  1260   00156C  0E6E               	movlw	low _pBDTEntryIn
  1261   00156E  24F3               	addwf	243,w,c
  1262   001570  6ED9               	movwf	fsr2l,c
  1263   001572  0E00               	movlw	high _pBDTEntryIn
  1264   001574  20F4               	addwfc	prodh,w,c
  1265   001576  6EDA               	movwf	fsr2h,c
  1266   001578  6ADE               	clrf	postinc2,c
  1267   00157A  6ADD               	clrf	postdec2,c
  1268                           
  1269                           ;usb_device.c: 350: pBDTEntryOut[i] = 0u;
  1270   00157C  5187               	movf	USBDeviceInit@i& (0+255),w,b
  1271   00157E  0D02               	mullw	2
  1272   001580  0E72               	movlw	low _pBDTEntryOut
  1273   001582  24F3               	addwf	243,w,c
  1274   001584  6ED9               	movwf	fsr2l,c
  1275   001586  0E00               	movlw	high _pBDTEntryOut
  1276   001588  20F4               	addwfc	prodh,w,c
  1277   00158A  6EDA               	movwf	fsr2h,c
  1278   00158C  6ADE               	clrf	postinc2,c
  1279   00158E  6ADD               	clrf	postdec2,c
  1280   001590                     
  1281                           ; BSR set to: 0
  1282                           ;usb_device.c: 351: ep_data_in[i].Val = 0u;
  1283   001590  0E78               	movlw	low _ep_data_in
  1284   001592  2587               	addwf	USBDeviceInit@i& (0+255),w,b
  1285   001594  6ED9               	movwf	fsr2l,c
  1286   001596  6ADA               	clrf	fsr2h,c
  1287   001598  0E00               	movlw	high _ep_data_in
  1288   00159A  22DA               	addwfc	fsr2h,f,c
  1289   00159C  6ADF               	clrf	indf2,c
  1290   00159E                     
  1291                           ; BSR set to: 0
  1292                           ;usb_device.c: 352: ep_data_out[i].Val = 0u;
  1293   00159E  0E76               	movlw	low _ep_data_out
  1294   0015A0  2587               	addwf	USBDeviceInit@i& (0+255),w,b
  1295   0015A2  6ED9               	movwf	fsr2l,c
  1296   0015A4  6ADA               	clrf	fsr2h,c
  1297   0015A6  0E00               	movlw	high _ep_data_out
  1298   0015A8  22DA               	addwfc	fsr2h,f,c
  1299   0015AA  6ADF               	clrf	indf2,c
  1300   0015AC                     
  1301                           ; BSR set to: 0
  1302   0015AC  2B87               	incf	USBDeviceInit@i& (0+255),f,b
  1303   0015AE                     
  1304                           ; BSR set to: 0
  1305   0015AE  0E01               	movlw	1
  1306   0015B0  6587               	cpfsgt	USBDeviceInit@i& (0+255),b
  1307   0015B2  EFDD  F00A         	goto	u2711
  1308   0015B6  EFDF  F00A         	goto	u2710
  1309   0015BA                     u2711:
  1310   0015BA  EFB4  F00A         	goto	l3760
  1311   0015BE                     u2710:
  1312   0015BE                     
  1313                           ; BSR set to: 0
  1314                           ;usb_device.c: 353: };usb_device.c: 356: pBDTEntryIn[0] = (volatile BDT_ENTRY*)&BDT[2];
  1315   0015BE  0E08               	movlw	8
  1316   0015C0  6F6E               	movwf	_pBDTEntryIn& (0+255),b
  1317   0015C2  0E04               	movlw	4
  1318   0015C4  6F6F               	movwf	(_pBDTEntryIn+1)& (0+255),b
  1319   0015C6                     
  1320                           ; BSR set to: 0
  1321                           ;usb_device.c: 358: UEP0 = 0x06|0x10;
  1322   0015C6  0E16               	movlw	22
  1323   0015C8  6E70               	movwf	112,c	;volatile
  1324   0015CA                     
  1325                           ; BSR set to: 0
  1326                           ;usb_device.c: 360: BDT[0].ADR = ((uint16_t)(&SetupPkt));
  1327   0015CA  0E04               	movlw	4
  1328   0015CC  0104               	movlb	4	; () banked
  1329   0015CE  6F03               	movwf	3,b	;volatile
  1330   0015D0  0E20               	movlw	32
  1331   0015D2  6F02               	movwf	2,b	;volatile
  1332   0015D4                     
  1333                           ; BSR set to: 4
  1334                           ;usb_device.c: 361: BDT[0].CNT = 8;
  1335   0015D4  0E08               	movlw	8
  1336   0015D6  6F01               	movwf	1,b	;volatile
  1337   0015D8                     
  1338                           ; BSR set to: 4
  1339                           ;usb_device.c: 362: BDT[0].STAT.Val = 0x00|0x04;
  1340   0015D8  0E04               	movlw	4
  1341   0015DA  6F00               	movwf	0,b	;volatile
  1342   0015DC                     
  1343                           ; BSR set to: 4
  1344                           ;usb_device.c: 363: BDT[0].STAT.Val |= 0x80;
  1345   0015DC  8F00               	bsf	0,7,b	;volatile
  1346   0015DE                     
  1347                           ; BSR set to: 4
  1348                           ;usb_device.c: 366: USBActiveConfiguration = 0;
  1349   0015DE  0E00               	movlw	0
  1350   0015E0  6E4F               	movwf	_USBActiveConfiguration^0,c	;volatile
  1351   0015E2                     
  1352                           ; BSR set to: 4
  1353                           ;usb_device.c: 368: USB1msTickCount = 0;
  1354   0015E2  0E00               	movlw	0
  1355   0015E4  6E2A               	movwf	_USB1msTickCount^0,c	;volatile
  1356   0015E6  0E00               	movlw	0
  1357   0015E8  6E2B               	movwf	(_USB1msTickCount+1)^0,c	;volatile
  1358   0015EA  0E00               	movlw	0
  1359   0015EC  6E2C               	movwf	(_USB1msTickCount+2)^0,c	;volatile
  1360   0015EE  0E00               	movlw	0
  1361   0015F0  6E2D               	movwf	(_USB1msTickCount+3)^0,c	;volatile
  1362   0015F2                     
  1363                           ; BSR set to: 4
  1364                           ;usb_device.c: 369: USBTicksSinceSuspendEnd = 0;
  1365   0015F2  0E00               	movlw	0
  1366   0015F4  6E3D               	movwf	_USBTicksSinceSuspendEnd^0,c	;volatile
  1367   0015F6                     
  1368                           ; BSR set to: 4
  1369                           ;usb_device.c: 372: USBDeviceState = DETACHED_STATE;
  1370   0015F6  0E00               	movlw	0
  1371   0015F8  6E4A               	movwf	_USBDeviceState^0,c	;volatile
  1372   0015FA                     
  1373                           ; BSR set to: 4
  1374   0015FA  0012               	return		;funcret
  1375   0015FC                     __end_of_USBDeviceInit:
  1376                           	callstack 0
  1377                           
  1378 ;; *************** function _memset *****************
  1379 ;; Defined at:
  1380 ;;		line 8 in file "B:\Program Files\Microchip\xc8\v2.41\pic\sources\c90\common\memset.c"
  1381 ;; Parameters:    Size  Location     Type
  1382 ;;  p1              2    5[BANK0 ] PTR void 
  1383 ;;		 -> USBAlternateInterface(1), BDT(32), UEP1(1), 
  1384 ;;  c               2    7[BANK0 ] int 
  1385 ;;  n               2    9[BANK0 ] unsigned int 
  1386 ;; Auto vars:     Size  Location     Type
  1387 ;;  p               2   11[BANK0 ] PTR unsigned char 
  1388 ;;		 -> USBAlternateInterface(1), BDT(32), UEP1(1), 
  1389 ;; Return value:  Size  Location     Type
  1390 ;;                  2    5[BANK0 ] PTR void 
  1391 ;; Registers used:
  1392 ;;		wreg, fsr2l, fsr2h, status,2, status,0
  1393 ;; Tracked objects:
  1394 ;;		On entry : 0/0
  1395 ;;		On exit  : 0/0
  1396 ;;		Unchanged: 0/0
  1397 ;; Data sizes:     COMRAM   BANK0   BANK1   BANK2   BANK3   BANK4   BANK5   BANK6   BANK7
  1398 ;;      Params:         0       6       0       0       0       0       0       0       0
  1399 ;;      Locals:         0       2       0       0       0       0       0       0       0
  1400 ;;      Temps:          0       0       0       0       0       0       0       0       0
  1401 ;;      Totals:         0       8       0       0       0       0       0       0       0
  1402 ;;Total ram usage:        8 bytes
  1403 ;; Hardware stack levels used: 1
  1404 ;; Hardware stack levels required when called: 12
  1405 ;; This function calls:
  1406 ;;		Nothing
  1407 ;; This function is called by:
  1408 ;;		_USBDeviceInit
  1409 ;; This function uses a non-reentrant model
  1410 ;;
  1411                           
  1412                           	psect	text4
  1413   0025A4                     __ptext4:
  1414                           	callstack 0
  1415   0025A4                     _memset:
  1416                           	callstack 17
  1417   0025A4  C07F  F085         	movff	memset@p1,memset@p
  1418   0025A8  C080  F086         	movff	memset@p1+1,memset@p+1
  1419   0025AC  EFE0  F012         	goto	l3712
  1420   0025B0                     l3708:
  1421                           
  1422                           ; BSR set to: 0
  1423   0025B0  C085  FFD9         	movff	memset@p,fsr2l
  1424   0025B4  C086  FFDA         	movff	memset@p+1,fsr2h
  1425   0025B8  C081  FFDF         	movff	memset@c,indf2
  1426   0025BC                     
  1427                           ; BSR set to: 0
  1428   0025BC  4B85               	infsnz	memset@p& (0+255),f,b
  1429   0025BE  2B86               	incf	(memset@p+1)& (0+255),f,b
  1430   0025C0                     l3712:
  1431   0025C0  0100               	movlb	0	; () banked
  1432   0025C2  0783               	decf	memset@n& (0+255),f,b
  1433   0025C4  A0D8               	btfss	status,0,c
  1434   0025C6  0784               	decf	(memset@n+1)& (0+255),f,b
  1435   0025C8  2983               	incf	memset@n& (0+255),w,b
  1436   0025CA  E106               	bnz	u2681
  1437   0025CC  2984               	incf	(memset@n+1)& (0+255),w,b
  1438   0025CE  A4D8               	btfss	status,2,c
  1439   0025D0  EFEC  F012         	goto	u2681
  1440   0025D4  EFEE  F012         	goto	u2680
  1441   0025D8                     u2681:
  1442   0025D8  EFD8  F012         	goto	l3708
  1443   0025DC                     u2680:
  1444   0025DC                     
  1445                           ; BSR set to: 0
  1446   0025DC  0012               	return		;funcret
  1447   0025DE                     __end_of_memset:
  1448                           	callstack 0
  1449                           
  1450 ;; *************** function _USBDeviceAttach *****************
  1451 ;; Defined at:
  1452 ;;		line 1354 in file "usb_device.c"
  1453 ;; Parameters:    Size  Location     Type
  1454 ;;		None
  1455 ;; Auto vars:     Size  Location     Type
  1456 ;;		None
  1457 ;; Return value:  Size  Location     Type
  1458 ;;                  1    wreg      void 
  1459 ;; Registers used:
  1460 ;;		wreg, status,2
  1461 ;; Tracked objects:
  1462 ;;		On entry : 0/0
  1463 ;;		On exit  : 0/0
  1464 ;;		Unchanged: 0/0
  1465 ;; Data sizes:     COMRAM   BANK0   BANK1   BANK2   BANK3   BANK4   BANK5   BANK6   BANK7
  1466 ;;      Params:         0       0       0       0       0       0       0       0       0
  1467 ;;      Locals:         0       0       0       0       0       0       0       0       0
  1468 ;;      Temps:          0       0       0       0       0       0       0       0       0
  1469 ;;      Totals:         0       0       0       0       0       0       0       0       0
  1470 ;;Total ram usage:        0 bytes
  1471 ;; Hardware stack levels used: 1
  1472 ;; Hardware stack levels required when called: 12
  1473 ;; This function calls:
  1474 ;;		Nothing
  1475 ;; This function is called by:
  1476 ;;		_main
  1477 ;; This function uses a non-reentrant model
  1478 ;;
  1479                           
  1480                           	psect	text5
  1481   002520                     __ptext5:
  1482                           	callstack 0
  1483   002520                     _USBDeviceAttach:
  1484                           	callstack 18
  1485   002520                     
  1486                           ;usb_device.c: 1358: {;usb_device.c: 1359: if(1 == 1)
  1487   002520  504A               	movf	_USBDeviceState^0,w,c	;volatile
  1488   002522  A4D8               	btfss	status,2,c
  1489   002524  EF96  F012         	goto	u2721
  1490   002528  EF98  F012         	goto	u2720
  1491   00252C                     u2721:
  1492   00252C  EFB2  F012         	goto	l219
  1493   002530                     u2720:
  1494   002530                     
  1495                           ;usb_device.c: 1360: {;usb_device.c: 1362: UCON = 0;
  1496   002530  0E00               	movlw	0
  1497   002532  6E6D               	movwf	109,c	;volatile
  1498                           
  1499                           ;usb_device.c: 1365: UIE = 0;
  1500   002534  0E00               	movlw	0
  1501   002536  6E69               	movwf	105,c	;volatile
  1502                           
  1503                           ;usb_device.c: 1369: { UCFG = 0x10 | 0x00 | 0x04 | 0x02; UEIE = 0x9F; UIE = 0x39 | 0x40 
      +                          | 0x02; };
  1504   002538  0E16               	movlw	22
  1505   00253A  6E6F               	movwf	111,c	;volatile
  1506   00253C  0E9F               	movlw	159
  1507   00253E  6E6B               	movwf	107,c	;volatile
  1508   002540  0E7B               	movlw	123
  1509   002542  6E69               	movwf	105,c	;volatile
  1510   002544                     
  1511                           ;usb_device.c: 1371: {RCONbits.IPEN = 1;IPR2bits.USBIP = 1;PIE2bits.USBIE = 1;INTCONbits
      +                          .GIEH = 1;};
  1512   002544  8ED0               	bsf	208,7,c	;volatile
  1513   002546  8AA2               	bsf	162,5,c	;volatile
  1514   002548  8AA0               	bsf	160,5,c	;volatile
  1515   00254A  8EF2               	bsf	242,7,c	;volatile
  1516                           
  1517                           ;usb_device.c: 1374: while(!UCONbits.USBEN){UCONbits.USBEN = 1;}
  1518   00254C  EFA9  F012         	goto	l216
  1519   002550                     l217:
  1520   002550  866D               	bsf	109,3,c	;volatile
  1521   002552                     l216:
  1522   002552  A66D               	btfss	109,3,c	;volatile
  1523   002554  EFAE  F012         	goto	u2731
  1524   002558  EFB0  F012         	goto	u2730
  1525   00255C                     u2731:
  1526   00255C  EFA8  F012         	goto	l217
  1527   002560                     u2730:
  1528   002560                     
  1529                           ;usb_device.c: 1377: USBDeviceState = ATTACHED_STATE;
  1530   002560  0E01               	movlw	1
  1531   002562  6E4A               	movwf	_USBDeviceState^0,c	;volatile
  1532   002564                     l219:
  1533   002564  0012               	return		;funcret
  1534   002566                     __end_of_USBDeviceAttach:
  1535                           	callstack 0
  1536                           
  1537 ;; *************** function _PIC18F4550_Initialize *****************
  1538 ;; Defined at:
  1539 ;;		line 77 in file "system.c"
  1540 ;; Parameters:    Size  Location     Type
  1541 ;;  state           1    wreg     enum E3059
  1542 ;; Auto vars:     Size  Location     Type
  1543 ;;  state           1    5[BANK0 ] enum E3059
  1544 ;; Return value:  Size  Location     Type
  1545 ;;                  1    wreg      void 
  1546 ;; Registers used:
  1547 ;;		wreg, status,2, status,0
  1548 ;; Tracked objects:
  1549 ;;		On entry : 0/0
  1550 ;;		On exit  : 0/0
  1551 ;;		Unchanged: 0/0
  1552 ;; Data sizes:     COMRAM   BANK0   BANK1   BANK2   BANK3   BANK4   BANK5   BANK6   BANK7
  1553 ;;      Params:         0       0       0       0       0       0       0       0       0
  1554 ;;      Locals:         0       1       0       0       0       0       0       0       0
  1555 ;;      Temps:          0       0       0       0       0       0       0       0       0
  1556 ;;      Totals:         0       1       0       0       0       0       0       0       0
  1557 ;;Total ram usage:        1 bytes
  1558 ;; Hardware stack levels used: 1
  1559 ;; Hardware stack levels required when called: 12
  1560 ;; This function calls:
  1561 ;;		Nothing
  1562 ;; This function is called by:
  1563 ;;		_main
  1564 ;; This function uses a non-reentrant model
  1565 ;;
  1566                           
  1567                           	psect	text6
  1568   0026FA                     __ptext6:
  1569                           	callstack 0
  1570   0026FA                     _PIC18F4550_Initialize:
  1571                           	callstack 18
  1572                           
  1573                           ;incstack = 0
  1574                           ;PIC18F4550_Initialize@state stored from wreg
  1575   0026FA  0100               	movlb	0	; () banked
  1576   0026FC  6F7F               	movwf	PIC18F4550_Initialize@state& (0+255),b
  1577   0026FE  0100               	movlb	0	; () banked
  1578   002700  517F               	movf	PIC18F4550_Initialize@state& (0+255),w,b
  1579                           
  1580                           ; Switch size 1, requested type "simple"
  1581                           ; Number of cases is 3, Range of values is 0 to 2
  1582                           ; switch strategies available:
  1583                           ; Name         Instructions Cycles
  1584                           ; simple_byte           10     6 (average)
  1585                           ;	Chosen strategy is simple_byte
  1586   002702  0A00               	xorlw	0	; case 0
  1587   002704  B4D8               	btfsc	status,2,c
  1588   002706  EF8F  F013         	goto	l557
  1589   00270A  0A01               	xorlw	1	; case 1
  1590   00270C  B4D8               	btfsc	status,2,c
  1591   00270E  EF8F  F013         	goto	l557
  1592   002712  0A03               	xorlw	3	; case 2
  1593   002714  B4D8               	btfsc	status,2,c
  1594   002716  EF8F  F013         	goto	l557
  1595   00271A  EF8F  F013         	goto	l557
  1596   00271E                     l557:
  1597                           
  1598                           ; BSR set to: 0
  1599   00271E  0012               	return		;funcret
  1600   002720                     __end_of_PIC18F4550_Initialize:
  1601                           	callstack 0
  1602                           
  1603 ;; *************** function _Init_PWM *****************
  1604 ;; Defined at:
  1605 ;;		line 115 in file "system.c"
  1606 ;; Parameters:    Size  Location     Type
  1607 ;;		None
  1608 ;; Auto vars:     Size  Location     Type
  1609 ;;		None
  1610 ;; Return value:  Size  Location     Type
  1611 ;;                  1    wreg      void 
  1612 ;; Registers used:
  1613 ;;		wreg, status,2
  1614 ;; Tracked objects:
  1615 ;;		On entry : 0/0
  1616 ;;		On exit  : 0/0
  1617 ;;		Unchanged: 0/0
  1618 ;; Data sizes:     COMRAM   BANK0   BANK1   BANK2   BANK3   BANK4   BANK5   BANK6   BANK7
  1619 ;;      Params:         0       0       0       0       0       0       0       0       0
  1620 ;;      Locals:         0       0       0       0       0       0       0       0       0
  1621 ;;      Temps:          0       0       0       0       0       0       0       0       0
  1622 ;;      Totals:         0       0       0       0       0       0       0       0       0
  1623 ;;Total ram usage:        0 bytes
  1624 ;; Hardware stack levels used: 1
  1625 ;; Hardware stack levels required when called: 12
  1626 ;; This function calls:
  1627 ;;		Nothing
  1628 ;; This function is called by:
  1629 ;;		_main
  1630 ;; This function uses a non-reentrant model
  1631 ;;
  1632                           
  1633                           	psect	text7
  1634   00267A                     __ptext7:
  1635                           	callstack 0
  1636   00267A                     _Init_PWM:
  1637                           	callstack 18
  1638   00267A                     
  1639                           ;system.c: 117: TRISCbits.RC0 = TRISCbits.RC1 = TRISCbits.RC2 = 0;
  1640   00267A  9494               	bcf	148,2,c	;volatile
  1641   00267C  9294               	bcf	148,1,c	;volatile
  1642   00267E  9094               	bcf	148,0,c	;volatile
  1643   002680                     
  1644                           ;system.c: 118: duty_R = duty_G = duty_B = 127;
  1645   002680  0E7F               	movlw	127
  1646   002682  6E3A               	movwf	_duty_B^0,c	;volatile
  1647   002684  C03A  F03B         	movff	_duty_B,_duty_G	;volatile
  1648   002688  C03B  F03C         	movff	_duty_G,_duty_R	;volatile
  1649                           
  1650                           ;system.c: 119: count = 0;
  1651   00268C  0E00               	movlw	0
  1652   00268E  6E2F               	movwf	(_count+1)^0,c	;volatile
  1653   002690  0E00               	movlw	0
  1654   002692  6E2E               	movwf	_count^0,c	;volatile
  1655   002694                     
  1656                           ;system.c: 121: PIE1bits.TMR2IE = 1;
  1657   002694  829D               	bsf	157,1,c	;volatile
  1658   002696                     
  1659                           ;system.c: 122: IPR1bits.TMR2IP = 0;
  1660   002696  929F               	bcf	159,1,c	;volatile
  1661   002698                     
  1662                           ;system.c: 124: INTCONbits.GIEH = 1;
  1663   002698  8EF2               	bsf	242,7,c	;volatile
  1664   00269A                     
  1665                           ;system.c: 125: INTCONbits.GIEL = 1;
  1666   00269A  8CF2               	bsf	242,6,c	;volatile
  1667                           
  1668                           ;system.c: 127: PR2 = 0x10;
  1669   00269C  0E10               	movlw	16
  1670   00269E  6ECB               	movwf	203,c	;volatile
  1671                           
  1672                           ;system.c: 128: T2CON = 0x00;
  1673   0026A0  0E00               	movlw	0
  1674   0026A2  6ECA               	movwf	202,c	;volatile
  1675   0026A4                     
  1676                           ;system.c: 129: T2CONbits.TMR2ON = 1;
  1677   0026A4  84CA               	bsf	202,2,c	;volatile
  1678   0026A6  0012               	return		;funcret
  1679   0026A8                     __end_of_Init_PWM:
  1680                           	callstack 0
  1681                           
  1682 ;; *************** function _pwm_low_priority *****************
  1683 ;; Defined at:
  1684 ;;		line 140 in file "system.c"
  1685 ;; Parameters:    Size  Location     Type
  1686 ;;		None
  1687 ;; Auto vars:     Size  Location     Type
  1688 ;;		None
  1689 ;; Return value:  Size  Location     Type
  1690 ;;                  1    wreg      void 
  1691 ;; Registers used:
  1692 ;;		wreg, status,2, status,0, cstack
  1693 ;; Tracked objects:
  1694 ;;		On entry : 0/0
  1695 ;;		On exit  : 0/0
  1696 ;;		Unchanged: 0/0
  1697 ;; Data sizes:     COMRAM   BANK0   BANK1   BANK2   BANK3   BANK4   BANK5   BANK6   BANK7
  1698 ;;      Params:         0       0       0       0       0       0       0       0       0
  1699 ;;      Locals:         0       0       0       0       0       0       0       0       0
  1700 ;;      Temps:          0       3       0       0       0       0       0       0       0
  1701 ;;      Totals:         0       3       0       0       0       0       0       0       0
  1702 ;;Total ram usage:        3 bytes
  1703 ;; Hardware stack levels used: 1
  1704 ;; Hardware stack levels required when called: 11
  1705 ;; This function calls:
  1706 ;;		_Update_PWM
  1707 ;; This function is called by:
  1708 ;;		Interrupt level 1
  1709 ;; This function uses a non-reentrant model
  1710 ;;
  1711                           
  1712                           	psect	intcodelo
  1713   000018                     __pintcodelo:
  1714                           	callstack 0
  1715   000018                     _pwm_low_priority:
  1716                           	callstack 17
  1717                           
  1718                           ;incstack = 0
  1719   000018  8050               	bsf	int$flags,0,c	;set compiler interrupt flag (level 1)
  1720   00001A  CFD8 F07C          	movff	status,??_pwm_low_priority
  1721   00001E  CFE8 F07D          	movff	wreg,??_pwm_low_priority+1
  1722   000022  CFE0 F07E          	movff	bsr,??_pwm_low_priority+2
  1723   000026                     
  1724                           ;system.c: 142: if (PIR1bits.TMR2IF)
  1725   000026  A29E               	btfss	158,1,c	;volatile
  1726   000028  EF18  F000         	goto	i1u285_21
  1727   00002C  EF1A  F000         	goto	i1u285_20
  1728   000030                     i1u285_21:
  1729   000030  EF1D  F000         	goto	i1l582
  1730   000034                     i1u285_20:
  1731   000034                     
  1732                           ;system.c: 143: {;system.c: 144: Update_PWM();
  1733   000034  EC3C  F00C         	call	_Update_PWM	;wreg free
  1734   000038                     
  1735                           ;system.c: 145: PIR1bits.TMR2IF = 0;
  1736   000038  929E               	bcf	158,1,c	;volatile
  1737   00003A                     i1l582:
  1738   00003A  C07E  FFE0         	movff	??_pwm_low_priority+2,bsr
  1739   00003E  C07D  FFE8         	movff	??_pwm_low_priority+1,wreg
  1740   000042  C07C  FFD8         	movff	??_pwm_low_priority,status
  1741   000046  9050               	bcf	int$flags,0,c	;clear compiler interrupt flag (level 1)
  1742   000048  0010               	retfie	
  1743   00004A                     __end_of_pwm_low_priority:
  1744                           	callstack 0
  1745                           
  1746 ;; *************** function _Update_PWM *****************
  1747 ;; Defined at:
  1748 ;;		line 149 in file "system.c"
  1749 ;; Parameters:    Size  Location     Type
  1750 ;;		None
  1751 ;; Auto vars:     Size  Location     Type
  1752 ;;		None
  1753 ;; Return value:  Size  Location     Type
  1754 ;;                  1    wreg      void 
  1755 ;; Registers used:
  1756 ;;		wreg, status,2, status,0
  1757 ;; Tracked objects:
  1758 ;;		On entry : 0/0
  1759 ;;		On exit  : 0/0
  1760 ;;		Unchanged: 0/0
  1761 ;; Data sizes:     COMRAM   BANK0   BANK1   BANK2   BANK3   BANK4   BANK5   BANK6   BANK7
  1762 ;;      Params:         0       0       0       0       0       0       0       0       0
  1763 ;;      Locals:         0       0       0       0       0       0       0       0       0
  1764 ;;      Temps:          0       2       0       0       0       0       0       0       0
  1765 ;;      Totals:         0       2       0       0       0       0       0       0       0
  1766 ;;Total ram usage:        2 bytes
  1767 ;; Hardware stack levels used: 1
  1768 ;; Hardware stack levels required when called: 10
  1769 ;; This function calls:
  1770 ;;		Nothing
  1771 ;; This function is called by:
  1772 ;;		_pwm_low_priority
  1773 ;; This function uses a non-reentrant model
  1774 ;;
  1775                           
  1776                           	psect	text9
  1777   001878                     __ptext9:
  1778                           	callstack 0
  1779   001878                     _Update_PWM:
  1780                           	callstack 17
  1781   001878                     
  1782                           ;system.c: 151: if(count<256){ count++;} else{count = count - count;}
  1783   001878  0E00               	movlw	0
  1784   00187A  5C2E               	subwf	_count^0,w,c	;volatile
  1785   00187C  0E01               	movlw	1
  1786   00187E  582F               	subwfb	(_count+1)^0,w,c	;volatile
  1787   001880  B0D8               	btfsc	status,0,c
  1788   001882  EF45  F00C         	goto	i1u274_21
  1789   001886  EF47  F00C         	goto	i1u274_20
  1790   00188A                     i1u274_21:
  1791   00188A  EF4B  F00C         	goto	i1l3836
  1792   00188E                     i1u274_20:
  1793   00188E  4A2E               	infsnz	_count^0,f,c	;volatile
  1794   001890  2A2F               	incf	(_count+1)^0,f,c	;volatile
  1795   001892  EF4F  F00C         	goto	i1l3838
  1796   001896                     i1l3836:
  1797   001896  0E00               	movlw	0
  1798   001898  6E2F               	movwf	(_count+1)^0,c	;volatile
  1799   00189A  0E00               	movlw	0
  1800   00189C  6E2E               	movwf	_count^0,c	;volatile
  1801   00189E                     i1l3838:
  1802                           
  1803                           ;system.c: 152: if(duty_R >= count){if(duty_R==0){LATCbits.LATC0 = 0;} else{ LATCbits.LA
      +                          TC0 = 1;}} else if(duty_R < count){LATCbits.LATC0 = 0;}
  1804   00189E  503C               	movf	_duty_R^0,w,c	;volatile
  1805   0018A0  0100               	movlb	0	; () banked
  1806   0018A2  6F7A               	movwf	??_Update_PWM& (0+255),b
  1807   0018A4  6B7B               	clrf	(??_Update_PWM+1)& (0+255),b
  1808   0018A6  502E               	movf	_count^0,w,c	;volatile
  1809   0018A8  5D7A               	subwf	??_Update_PWM& (0+255),w,b
  1810   0018AA  502F               	movf	(_count+1)^0,w,c	;volatile
  1811   0018AC  597B               	subwfb	(??_Update_PWM+1)& (0+255),w,b
  1812   0018AE  A0D8               	btfss	status,0,c
  1813   0018B0  EF5C  F00C         	goto	i1u275_21
  1814   0018B4  EF5E  F00C         	goto	i1u275_20
  1815   0018B8                     i1u275_21:
  1816   0018B8  EF6C  F00C         	goto	i1l3844
  1817   0018BC                     i1u275_20:
  1818   0018BC                     
  1819                           ; BSR set to: 0
  1820   0018BC  503C               	movf	_duty_R^0,w,c	;volatile
  1821   0018BE  A4D8               	btfss	status,2,c
  1822   0018C0  EF64  F00C         	goto	i1u276_21
  1823   0018C4  EF66  F00C         	goto	i1u276_20
  1824   0018C8                     i1u276_21:
  1825   0018C8  EF69  F00C         	goto	i1l588
  1826   0018CC                     i1u276_20:
  1827   0018CC                     
  1828                           ; BSR set to: 0
  1829   0018CC  908B               	bcf	139,0,c	;volatile
  1830   0018CE  EF7B  F00C         	goto	i1l3848
  1831   0018D2                     i1l588:
  1832                           
  1833                           ; BSR set to: 0
  1834   0018D2  808B               	bsf	139,0,c	;volatile
  1835   0018D4  EF7B  F00C         	goto	i1l3848
  1836   0018D8                     i1l3844:
  1837                           
  1838                           ; BSR set to: 0
  1839   0018D8  503C               	movf	_duty_R^0,w,c	;volatile
  1840   0018DA  6F7A               	movwf	??_Update_PWM& (0+255),b
  1841   0018DC  6B7B               	clrf	(??_Update_PWM+1)& (0+255),b
  1842   0018DE  502E               	movf	_count^0,w,c	;volatile
  1843   0018E0  5D7A               	subwf	??_Update_PWM& (0+255),w,b
  1844   0018E2  502F               	movf	(_count+1)^0,w,c	;volatile
  1845   0018E4  597B               	subwfb	(??_Update_PWM+1)& (0+255),w,b
  1846   0018E6  B0D8               	btfsc	status,0,c
  1847   0018E8  EF78  F00C         	goto	i1u277_21
  1848   0018EC  EF7A  F00C         	goto	i1u277_20
  1849   0018F0                     i1u277_21:
  1850   0018F0  EF7B  F00C         	goto	i1l3848
  1851   0018F4                     i1u277_20:
  1852   0018F4                     
  1853                           ; BSR set to: 0
  1854   0018F4  908B               	bcf	139,0,c	;volatile
  1855   0018F6                     i1l3848:
  1856                           
  1857                           ; BSR set to: 0
  1858                           ;system.c: 153: if(duty_G >= count){if(duty_G==0){LATCbits.LATC1 = 0;} else{ LATCbits.LA
      +                          TC1 = 1;}}else if(duty_G < count){LATCbits.LATC1 = 0;}
  1859   0018F6  503B               	movf	_duty_G^0,w,c	;volatile
  1860   0018F8  6F7A               	movwf	??_Update_PWM& (0+255),b
  1861   0018FA  6B7B               	clrf	(??_Update_PWM+1)& (0+255),b
  1862   0018FC  502E               	movf	_count^0,w,c	;volatile
  1863   0018FE  5D7A               	subwf	??_Update_PWM& (0+255),w,b
  1864   001900  502F               	movf	(_count+1)^0,w,c	;volatile
  1865   001902  597B               	subwfb	(??_Update_PWM+1)& (0+255),w,b
  1866   001904  A0D8               	btfss	status,0,c
  1867   001906  EF87  F00C         	goto	i1u278_21
  1868   00190A  EF89  F00C         	goto	i1u278_20
  1869   00190E                     i1u278_21:
  1870   00190E  EF97  F00C         	goto	i1l3854
  1871   001912                     i1u278_20:
  1872   001912                     
  1873                           ; BSR set to: 0
  1874   001912  503B               	movf	_duty_G^0,w,c	;volatile
  1875   001914  A4D8               	btfss	status,2,c
  1876   001916  EF8F  F00C         	goto	i1u279_21
  1877   00191A  EF91  F00C         	goto	i1u279_20
  1878   00191E                     i1u279_21:
  1879   00191E  EF94  F00C         	goto	i1l593
  1880   001922                     i1u279_20:
  1881   001922                     
  1882                           ; BSR set to: 0
  1883   001922  928B               	bcf	139,1,c	;volatile
  1884   001924  EFA6  F00C         	goto	i1l3858
  1885   001928                     i1l593:
  1886                           
  1887                           ; BSR set to: 0
  1888   001928  828B               	bsf	139,1,c	;volatile
  1889   00192A  EFA6  F00C         	goto	i1l3858
  1890   00192E                     i1l3854:
  1891                           
  1892                           ; BSR set to: 0
  1893   00192E  503B               	movf	_duty_G^0,w,c	;volatile
  1894   001930  6F7A               	movwf	??_Update_PWM& (0+255),b
  1895   001932  6B7B               	clrf	(??_Update_PWM+1)& (0+255),b
  1896   001934  502E               	movf	_count^0,w,c	;volatile
  1897   001936  5D7A               	subwf	??_Update_PWM& (0+255),w,b
  1898   001938  502F               	movf	(_count+1)^0,w,c	;volatile
  1899   00193A  597B               	subwfb	(??_Update_PWM+1)& (0+255),w,b
  1900   00193C  B0D8               	btfsc	status,0,c
  1901   00193E  EFA3  F00C         	goto	i1u280_21
  1902   001942  EFA5  F00C         	goto	i1u280_20
  1903   001946                     i1u280_21:
  1904   001946  EFA6  F00C         	goto	i1l3858
  1905   00194A                     i1u280_20:
  1906   00194A                     
  1907                           ; BSR set to: 0
  1908   00194A  928B               	bcf	139,1,c	;volatile
  1909   00194C                     i1l3858:
  1910                           
  1911                           ; BSR set to: 0
  1912                           ;system.c: 154: if(duty_B >= count){if(duty_B==0){LATCbits.LATC2 = 0;} else{ LATCbits.LA
      +                          TC2 = 1;}} else if(duty_B < count){LATCbits.LATC2 = 0;}
  1913   00194C  503A               	movf	_duty_B^0,w,c	;volatile
  1914   00194E  6F7A               	movwf	??_Update_PWM& (0+255),b
  1915   001950  6B7B               	clrf	(??_Update_PWM+1)& (0+255),b
  1916   001952  502E               	movf	_count^0,w,c	;volatile
  1917   001954  5D7A               	subwf	??_Update_PWM& (0+255),w,b
  1918   001956  502F               	movf	(_count+1)^0,w,c	;volatile
  1919   001958  597B               	subwfb	(??_Update_PWM+1)& (0+255),w,b
  1920   00195A  A0D8               	btfss	status,0,c
  1921   00195C  EFB2  F00C         	goto	i1u281_21
  1922   001960  EFB4  F00C         	goto	i1u281_20
  1923   001964                     i1u281_21:
  1924   001964  EFC2  F00C         	goto	i1l3864
  1925   001968                     i1u281_20:
  1926   001968                     
  1927                           ; BSR set to: 0
  1928   001968  503A               	movf	_duty_B^0,w,c	;volatile
  1929   00196A  A4D8               	btfss	status,2,c
  1930   00196C  EFBA  F00C         	goto	i1u282_21
  1931   001970  EFBC  F00C         	goto	i1u282_20
  1932   001974                     i1u282_21:
  1933   001974  EFBF  F00C         	goto	i1l598
  1934   001978                     i1u282_20:
  1935   001978                     
  1936                           ; BSR set to: 0
  1937   001978  948B               	bcf	139,2,c	;volatile
  1938   00197A  EFD1  F00C         	goto	i1l602
  1939   00197E                     i1l598:
  1940                           
  1941                           ; BSR set to: 0
  1942   00197E  848B               	bsf	139,2,c	;volatile
  1943   001980  EFD1  F00C         	goto	i1l602
  1944   001984                     i1l3864:
  1945                           
  1946                           ; BSR set to: 0
  1947   001984  503A               	movf	_duty_B^0,w,c	;volatile
  1948   001986  6F7A               	movwf	??_Update_PWM& (0+255),b
  1949   001988  6B7B               	clrf	(??_Update_PWM+1)& (0+255),b
  1950   00198A  502E               	movf	_count^0,w,c	;volatile
  1951   00198C  5D7A               	subwf	??_Update_PWM& (0+255),w,b
  1952   00198E  502F               	movf	(_count+1)^0,w,c	;volatile
  1953   001990  597B               	subwfb	(??_Update_PWM+1)& (0+255),w,b
  1954   001992  B0D8               	btfsc	status,0,c
  1955   001994  EFCE  F00C         	goto	i1u283_21
  1956   001998  EFD0  F00C         	goto	i1u283_20
  1957   00199C                     i1u283_21:
  1958   00199C  EFD1  F00C         	goto	i1l602
  1959   0019A0                     i1u283_20:
  1960   0019A0                     
  1961                           ; BSR set to: 0
  1962   0019A0  948B               	bcf	139,2,c	;volatile
  1963   0019A2                     i1l602:
  1964                           
  1965                           ; BSR set to: 0
  1966   0019A2  0012               	return		;funcret
  1967   0019A4                     __end_of_Update_PWM:
  1968                           	callstack 0
  1969                           
  1970 ;; *************** function _SYS_InterruptHigh *****************
  1971 ;; Defined at:
  1972 ;;		line 99 in file "system.c"
  1973 ;; Parameters:    Size  Location     Type
  1974 ;;		None
  1975 ;; Auto vars:     Size  Location     Type
  1976 ;;		None
  1977 ;; Return value:  Size  Location     Type
  1978 ;;                  1    wreg      void 
  1979 ;; Registers used:
  1980 ;;		wreg, fsr1l, fsr1h, fsr2l, fsr2h, status,2, status,0, tblptrl, tblptrh, tblptru, prodl, prodh, cstack
  1981 ;; Tracked objects:
  1982 ;;		On entry : 0/0
  1983 ;;		On exit  : 0/0
  1984 ;;		Unchanged: 0/0
  1985 ;; Data sizes:     COMRAM   BANK0   BANK1   BANK2   BANK3   BANK4   BANK5   BANK6   BANK7
  1986 ;;      Params:         0       0       0       0       0       0       0       0       0
  1987 ;;      Locals:         0       0       0       0       0       0       0       0       0
  1988 ;;      Temps:         10       0       0       0       0       0       0       0       0
  1989 ;;      Totals:        10       0       0       0       0       0       0       0       0
  1990 ;;Total ram usage:       10 bytes
  1991 ;; Hardware stack levels used: 1
  1992 ;; Hardware stack levels required when called: 9
  1993 ;; This function calls:
  1994 ;;		_USBDeviceTasks
  1995 ;; This function is called by:
  1996 ;;		Interrupt level 2
  1997 ;; This function uses a non-reentrant model
  1998 ;;
  1999                           
  2000                           	psect	intcode
  2001   000008                     __pintcode:
  2002                           	callstack 0
  2003   000008                     _SYS_InterruptHigh:
  2004                           	callstack 17
  2005                           
  2006                           ; BSR set to: 0
  2007                           ;incstack = 0
  2008   000008  8250               	bsf	int$flags,1,c	;set compiler interrupt flag (level 2)
  2009   00000A  ED15  F012         	call	int_func,f	;refresh shadow registers
  2010                           
  2011                           	psect	intcode_body
  2012   00242A                     __pintcode_body:
  2013                           	callstack 17
  2014   00242A                     int_func:
  2015                           	callstack 17
  2016   00242A  0006               	pop		; remove dummy address from shadow register refresh
  2017   00242C  CFE1 F020          	movff	fsr1l,??_SYS_InterruptHigh
  2018   002430  CFE2 F021          	movff	fsr1h,??_SYS_InterruptHigh+1
  2019   002434  CFD9 F022          	movff	fsr2l,??_SYS_InterruptHigh+2
  2020   002438  CFDA F023          	movff	fsr2h,??_SYS_InterruptHigh+3
  2021   00243C  CFF3 F024          	movff	prodl,??_SYS_InterruptHigh+4
  2022   002440  CFF4 F025          	movff	prodh,??_SYS_InterruptHigh+5
  2023   002444  CFF6 F026          	movff	tblptrl,??_SYS_InterruptHigh+6
  2024   002448  CFF7 F027          	movff	tblptrh,??_SYS_InterruptHigh+7
  2025   00244C  CFF8 F028          	movff	tblptru,??_SYS_InterruptHigh+8
  2026   002450  CFF5 F029          	movff	tablat,??_SYS_InterruptHigh+9
  2027   002454                     
  2028                           ;system.c: 102: USBDeviceTasks();
  2029   002454  EC12  F006         	call	_USBDeviceTasks	;wreg free
  2030   002458  C029  FFF5         	movff	??_SYS_InterruptHigh+9,tablat
  2031   00245C  C028  FFF8         	movff	??_SYS_InterruptHigh+8,tblptru
  2032   002460  C027  FFF7         	movff	??_SYS_InterruptHigh+7,tblptrh
  2033   002464  C026  FFF6         	movff	??_SYS_InterruptHigh+6,tblptrl
  2034   002468  C025  FFF4         	movff	??_SYS_InterruptHigh+5,prodh
  2035   00246C  C024  FFF3         	movff	??_SYS_InterruptHigh+4,prodl
  2036   002470  C023  FFDA         	movff	??_SYS_InterruptHigh+3,fsr2h
  2037   002474  C022  FFD9         	movff	??_SYS_InterruptHigh+2,fsr2l
  2038   002478  C021  FFE2         	movff	??_SYS_InterruptHigh+1,fsr1h
  2039   00247C  C020  FFE1         	movff	??_SYS_InterruptHigh,fsr1l
  2040   002480  9250               	bcf	int$flags,1,c	;clear compiler interrupt flag (level 2)
  2041   002482  0011               	retfie		f
  2042   002484                     __end_of_SYS_InterruptHigh:
  2043                           	callstack 0
  2044                           
  2045 ;; *************** function _USBDeviceTasks *****************
  2046 ;; Defined at:
  2047 ;;		line 479 in file "usb_device.c"
  2048 ;; Parameters:    Size  Location     Type
  2049 ;;		None
  2050 ;; Auto vars:     Size  Location     Type
  2051 ;;  i               1   30[COMRAM] unsigned char 
  2052 ;; Return value:  Size  Location     Type
  2053 ;;                  1    wreg      void 
  2054 ;; Registers used:
  2055 ;;		wreg, fsr1l, fsr1h, fsr2l, fsr2h, status,2, status,0, tblptrl, tblptrh, tblptru, prodl, prodh, cstack
  2056 ;; Tracked objects:
  2057 ;;		On entry : 0/0
  2058 ;;		On exit  : 0/0
  2059 ;;		Unchanged: 0/0
  2060 ;; Data sizes:     COMRAM   BANK0   BANK1   BANK2   BANK3   BANK4   BANK5   BANK6   BANK7
  2061 ;;      Params:         0       0       0       0       0       0       0       0       0
  2062 ;;      Locals:         1       0       0       0       0       0       0       0       0
  2063 ;;      Temps:          0       0       0       0       0       0       0       0       0
  2064 ;;      Totals:         1       0       0       0       0       0       0       0       0
  2065 ;;Total ram usage:        1 bytes
  2066 ;; Hardware stack levels used: 1
  2067 ;; Hardware stack levels required when called: 8
  2068 ;; This function calls:
  2069 ;;		_USBCtrlEPAllowStatusStage
  2070 ;;		_USBCtrlEPService
  2071 ;;		_USBIncrement1msInternalTimers
  2072 ;;		_USBStallHandler
  2073 ;;		_USBSuspend
  2074 ;;		_USBWakeFromSuspend
  2075 ;;		_USER_USB_CALLBACK_EVENT_HANDLER
  2076 ;;		i2_USBDeviceInit
  2077 ;; This function is called by:
  2078 ;;		_SYS_InterruptHigh
  2079 ;; This function uses a non-reentrant model
  2080 ;;
  2081                           
  2082                           	psect	text11
  2083   000C24                     __ptext11:
  2084                           	callstack 0
  2085   000C24                     _USBDeviceTasks:
  2086                           	callstack 17
  2087   000C24                     
  2088                           ;usb_device.c: 481: uint8_t i;;usb_device.c: 592: if(USBDeviceState == ATTACHED_STATE)
  2089   000C24  044A               	decf	_USBDeviceState^0,w,c	;volatile
  2090   000C26  A4D8               	btfss	status,2,c
  2091   000C28  EF18  F006         	goto	i2u239_41
  2092   000C2C  EF1A  F006         	goto	i2u239_40
  2093   000C30                     i2u239_41:
  2094   000C30  EF27  F006         	goto	i2l3494
  2095   000C34                     i2u239_40:
  2096   000C34                     
  2097                           ;usb_device.c: 593: {;usb_device.c: 603: if(!UCONbits.SE0)
  2098   000C34  BA6D               	btfsc	109,5,c	;volatile
  2099   000C36  EF1F  F006         	goto	i2u240_41
  2100   000C3A  EF21  F006         	goto	i2u240_40
  2101   000C3E                     i2u240_41:
  2102   000C3E  EF27  F006         	goto	i2l3494
  2103   000C42                     i2u240_40:
  2104   000C42                     
  2105                           ;usb_device.c: 604: {;usb_device.c: 610: {UIR = 0;};
  2106   000C42  0E00               	movlw	0
  2107   000C44  6E68               	movwf	104,c	;volatile
  2108   000C46                     
  2109                           ;usb_device.c: 616: UIEbits.URSTIE = 1;
  2110   000C46  8069               	bsf	105,0,c	;volatile
  2111   000C48                     
  2112                           ;usb_device.c: 617: UIEbits.IDLEIE = 1;
  2113   000C48  8869               	bsf	105,4,c	;volatile
  2114                           
  2115                           ;usb_device.c: 618: USBDeviceState = POWERED_STATE;
  2116   000C4A  0E02               	movlw	2
  2117   000C4C  6E4A               	movwf	_USBDeviceState^0,c	;volatile
  2118   000C4E                     i2l3494:
  2119                           
  2120                           ;usb_device.c: 619: };usb_device.c: 620: };usb_device.c: 636: if(UIRbits.ACTVIF && UIEbi
      +                          ts.ACTVIE)
  2121   000C4E  A468               	btfss	104,2,c	;volatile
  2122   000C50  EF2C  F006         	goto	i2u241_41
  2123   000C54  EF2E  F006         	goto	i2u241_40
  2124   000C58                     i2u241_41:
  2125   000C58  EF38  F006         	goto	i2l3502
  2126   000C5C                     i2u241_40:
  2127   000C5C  A469               	btfss	105,2,c	;volatile
  2128   000C5E  EF33  F006         	goto	i2u242_41
  2129   000C62  EF35  F006         	goto	i2u242_40
  2130   000C66                     i2u242_41:
  2131   000C66  EF38  F006         	goto	i2l3502
  2132   000C6A                     i2u242_40:
  2133   000C6A                     
  2134                           ;usb_device.c: 637: {;usb_device.c: 638: (UIR &= 0xFB);
  2135   000C6A  9468               	bcf	104,2,c	;volatile
  2136   000C6C                     
  2137                           ;usb_device.c: 642: USBWakeFromSuspend();
  2138   000C6C  ECB3  F012         	call	_USBWakeFromSuspend	;wreg free
  2139   000C70                     i2l3502:
  2140                           
  2141                           ;usb_device.c: 644: };usb_device.c: 649: if(UCONbits.SUSPND==1)
  2142   000C70  A26D               	btfss	109,1,c	;volatile
  2143   000C72  EF3D  F006         	goto	i2u243_41
  2144   000C76  EF3F  F006         	goto	i2u243_40
  2145   000C7A                     i2u243_41:
  2146   000C7A  EF42  F006         	goto	i2l167
  2147   000C7E                     i2u243_40:
  2148   000C7E                     
  2149                           ;usb_device.c: 650: {;usb_device.c: 651: {PIR2bits.USBIF = 0;};
  2150   000C7E  9AA1               	bcf	161,5,c	;volatile
  2151                           
  2152                           ;usb_device.c: 652: return;
  2153   000C80  EF25  F007         	goto	i2l168
  2154   000C84                     i2l167:
  2155                           
  2156                           ;usb_device.c: 653: };usb_device.c: 665: if(UIRbits.URSTIF && UIEbits.URSTIE)
  2157   000C84  A068               	btfss	104,0,c	;volatile
  2158   000C86  EF47  F006         	goto	i2u244_41
  2159   000C8A  EF49  F006         	goto	i2u244_40
  2160   000C8E                     i2u244_41:
  2161   000C8E  EF56  F006         	goto	i2l3516
  2162   000C92                     i2u244_40:
  2163   000C92  A069               	btfss	105,0,c	;volatile
  2164   000C94  EF4E  F006         	goto	i2u245_41
  2165   000C98  EF50  F006         	goto	i2u245_40
  2166   000C9C                     i2u245_41:
  2167   000C9C  EF56  F006         	goto	i2l3516
  2168   000CA0                     i2u245_40:
  2169   000CA0                     
  2170                           ;usb_device.c: 666: {;usb_device.c: 667: USBDeviceInit();
  2171   000CA0  ECFE  F00A         	call	i2_USBDeviceInit	;wreg free
  2172   000CA4                     
  2173                           ;usb_device.c: 671: {PIE2bits.USBIE = 1;};
  2174   000CA4  8AA0               	bsf	160,5,c	;volatile
  2175   000CA6                     
  2176                           ;usb_device.c: 673: USBDeviceState = DEFAULT_STATE;
  2177   000CA6  0E04               	movlw	4
  2178   000CA8  6E4A               	movwf	_USBDeviceState^0,c	;volatile
  2179   000CAA                     
  2180                           ;usb_device.c: 683: (UIR &= 0xFE);
  2181   000CAA  9068               	bcf	104,0,c	;volatile
  2182   000CAC                     i2l3516:
  2183                           
  2184                           ;usb_device.c: 684: };usb_device.c: 689: if(UIRbits.IDLEIF && UIEbits.IDLEIE)
  2185   000CAC  A868               	btfss	104,4,c	;volatile
  2186   000CAE  EF5B  F006         	goto	i2u246_41
  2187   000CB2  EF5D  F006         	goto	i2u246_40
  2188   000CB6                     i2u246_41:
  2189   000CB6  EF66  F006         	goto	i2l3522
  2190   000CBA                     i2u246_40:
  2191   000CBA  A869               	btfss	105,4,c	;volatile
  2192   000CBC  EF62  F006         	goto	i2u247_41
  2193   000CC0  EF64  F006         	goto	i2u247_40
  2194   000CC4                     i2u247_41:
  2195   000CC4  EF66  F006         	goto	i2l3522
  2196   000CC8                     i2u247_40:
  2197   000CC8                     
  2198                           ;usb_device.c: 690: {;usb_device.c: 696: USBSuspend();
  2199   000CC8  EC54  F013         	call	_USBSuspend	;wreg free
  2200   000CCC                     i2l3522:
  2201                           
  2202                           ;usb_device.c: 698: };usb_device.c: 710: if(UIRbits.SOFIF)
  2203   000CCC  AC68               	btfss	104,6,c	;volatile
  2204   000CCE  EF6B  F006         	goto	i2u248_41
  2205   000CD2  EF6D  F006         	goto	i2u248_40
  2206   000CD6                     i2u248_41:
  2207   000CD6  EF98  F006         	goto	i2l3540
  2208   000CDA                     i2u248_40:
  2209   000CDA                     
  2210                           ;usb_device.c: 711: {;usb_device.c: 713: if(UIEbits.SOFIE)
  2211   000CDA  AC69               	btfss	105,6,c	;volatile
  2212   000CDC  EF72  F006         	goto	i2u249_41
  2213   000CE0  EF74  F006         	goto	i2u249_40
  2214   000CE4                     i2u249_41:
  2215   000CE4  EF82  F006         	goto	i2l3528
  2216   000CE8                     i2u249_40:
  2217   000CE8                     
  2218                           ;usb_device.c: 714: {;usb_device.c: 715: USER_USB_CALLBACK_EVENT_HANDLER((USB_EVENT)EVEN
      +                          T_SOF,0,1);
  2219   000CE8  0E00               	movlw	0
  2220   000CEA  6E10               	movwf	(USER_USB_CALLBACK_EVENT_HANDLER@event+1)^0,c
  2221   000CEC  0E73               	movlw	115
  2222   000CEE  6E0F               	movwf	USER_USB_CALLBACK_EVENT_HANDLER@event^0,c
  2223   000CF0  0E00               	movlw	0
  2224   000CF2  6E11               	movwf	USER_USB_CALLBACK_EVENT_HANDLER@pdata^0,c
  2225   000CF4  0E00               	movlw	0
  2226   000CF6  6E12               	movwf	(USER_USB_CALLBACK_EVENT_HANDLER@pdata+1)^0,c
  2227   000CF8  0E00               	movlw	0
  2228   000CFA  6E14               	movwf	(USER_USB_CALLBACK_EVENT_HANDLER@size+1)^0,c
  2229   000CFC  0E01               	movlw	1
  2230   000CFE  6E13               	movwf	USER_USB_CALLBACK_EVENT_HANDLER@size^0,c
  2231   000D00  ECE8  F010         	call	_USER_USB_CALLBACK_EVENT_HANDLER	;wreg free
  2232   000D04                     i2l3528:
  2233                           
  2234                           ;usb_device.c: 716: };usb_device.c: 717: (UIR &= 0xBF);
  2235   000D04  9C68               	bcf	104,6,c	;volatile
  2236   000D06                     
  2237                           ;usb_device.c: 720: USBIncrement1msInternalTimers();
  2238   000D06  EC0B  F013         	call	_USBIncrement1msInternalTimers	;wreg free
  2239   000D0A                     
  2240                           ;usb_device.c: 737: if(USBStatusStageTimeoutCounter != 0u)
  2241   000D0A  5043               	movf	_USBStatusStageTimeoutCounter^0,w,c	;volatile
  2242   000D0C  B4D8               	btfsc	status,2,c
  2243   000D0E  EF8B  F006         	goto	i2u250_41
  2244   000D12  EF8D  F006         	goto	i2u250_40
  2245   000D16                     i2u250_41:
  2246   000D16  EF8E  F006         	goto	i2l3536
  2247   000D1A                     i2u250_40:
  2248   000D1A                     
  2249                           ;usb_device.c: 738: {;usb_device.c: 739: USBStatusStageTimeoutCounter--;
  2250   000D1A  0643               	decf	_USBStatusStageTimeoutCounter^0,f,c	;volatile
  2251   000D1C                     i2l3536:
  2252                           
  2253                           ;usb_device.c: 740: };usb_device.c: 746: if(USBStatusStageTimeoutCounter == 0)
  2254   000D1C  5043               	movf	_USBStatusStageTimeoutCounter^0,w,c	;volatile
  2255   000D1E  A4D8               	btfss	status,2,c
  2256   000D20  EF94  F006         	goto	i2u251_41
  2257   000D24  EF96  F006         	goto	i2u251_40
  2258   000D28                     i2u251_41:
  2259   000D28  EF98  F006         	goto	i2l3540
  2260   000D2C                     i2u251_40:
  2261   000D2C                     
  2262                           ;usb_device.c: 747: {;usb_device.c: 748: USBCtrlEPAllowStatusStage();
  2263   000D2C  ECEF  F00E         	call	_USBCtrlEPAllowStatusStage	;wreg free
  2264   000D30                     i2l3540:
  2265                           
  2266                           ;usb_device.c: 749: };usb_device.c: 751: };usb_device.c: 753: if(UIRbits.STALLIF && UIEb
      +                          its.STALLIE)
  2267   000D30  AA68               	btfss	104,5,c	;volatile
  2268   000D32  EF9D  F006         	goto	i2u252_41
  2269   000D36  EF9F  F006         	goto	i2u252_40
  2270   000D3A                     i2u252_41:
  2271   000D3A  EFA8  F006         	goto	i2l3546
  2272   000D3E                     i2u252_40:
  2273   000D3E  AA69               	btfss	105,5,c	;volatile
  2274   000D40  EFA4  F006         	goto	i2u253_41
  2275   000D44  EFA6  F006         	goto	i2u253_40
  2276   000D48                     i2u253_41:
  2277   000D48  EFA8  F006         	goto	i2l3546
  2278   000D4C                     i2u253_40:
  2279   000D4C                     
  2280                           ;usb_device.c: 754: {;usb_device.c: 755: USBStallHandler();
  2281   000D4C  ECB8  F011         	call	_USBStallHandler	;wreg free
  2282   000D50                     i2l3546:
  2283                           
  2284                           ;usb_device.c: 756: };usb_device.c: 758: if(UIRbits.UERRIF && UIEbits.UERRIE)
  2285   000D50  A268               	btfss	104,1,c	;volatile
  2286   000D52  EFAD  F006         	goto	i2u254_41
  2287   000D56  EFAF  F006         	goto	i2u254_40
  2288   000D5A                     i2u254_41:
  2289   000D5A  EFC5  F006         	goto	i2l3554
  2290   000D5E                     i2u254_40:
  2291   000D5E  A269               	btfss	105,1,c	;volatile
  2292   000D60  EFB4  F006         	goto	i2u255_41
  2293   000D64  EFB6  F006         	goto	i2u255_40
  2294   000D68                     i2u255_41:
  2295   000D68  EFC5  F006         	goto	i2l3554
  2296   000D6C                     i2u255_40:
  2297   000D6C                     
  2298                           ;usb_device.c: 759: {;usb_device.c: 760: USER_USB_CALLBACK_EVENT_HANDLER((USB_EVENT)EVEN
      +                          T_BUS_ERROR,0,1);
  2299   000D6C  0E7F               	movlw	127
  2300   000D6E  6E10               	movwf	(USER_USB_CALLBACK_EVENT_HANDLER@event+1)^0,c
  2301   000D70  680F               	setf	USER_USB_CALLBACK_EVENT_HANDLER@event^0,c
  2302   000D72  0E00               	movlw	0
  2303   000D74  6E11               	movwf	USER_USB_CALLBACK_EVENT_HANDLER@pdata^0,c
  2304   000D76  0E00               	movlw	0
  2305   000D78  6E12               	movwf	(USER_USB_CALLBACK_EVENT_HANDLER@pdata+1)^0,c
  2306   000D7A  0E00               	movlw	0
  2307   000D7C  6E14               	movwf	(USER_USB_CALLBACK_EVENT_HANDLER@size+1)^0,c
  2308   000D7E  0E01               	movlw	1
  2309   000D80  6E13               	movwf	USER_USB_CALLBACK_EVENT_HANDLER@size^0,c
  2310   000D82  ECE8  F010         	call	_USER_USB_CALLBACK_EVENT_HANDLER	;wreg free
  2311   000D86                     
  2312                           ;usb_device.c: 761: {UEIR = 0;};
  2313   000D86  0E00               	movlw	0
  2314   000D88  6E6A               	movwf	106,c	;volatile
  2315   000D8A                     i2l3554:
  2316                           
  2317                           ;usb_device.c: 769: };usb_device.c: 776: if(USBDeviceState < DEFAULT_STATE)
  2318   000D8A  0E04               	movlw	4
  2319   000D8C  604A               	cpfslt	_USBDeviceState^0,c	;volatile
  2320   000D8E  EFCB  F006         	goto	i2u256_41
  2321   000D92  EFCD  F006         	goto	i2u256_40
  2322   000D96                     i2u256_41:
  2323   000D96  EFD0  F006         	goto	i2l177
  2324   000D9A                     i2u256_40:
  2325   000D9A                     
  2326                           ;usb_device.c: 777: {;usb_device.c: 778: {PIR2bits.USBIF = 0;};
  2327   000D9A  9AA1               	bcf	161,5,c	;volatile
  2328                           
  2329                           ;usb_device.c: 779: return;
  2330   000D9C  EF25  F007         	goto	i2l168
  2331   000DA0                     i2l177:
  2332                           
  2333                           ;usb_device.c: 780: };usb_device.c: 785: if(UIEbits.TRNIE)
  2334   000DA0  A669               	btfss	105,3,c	;volatile
  2335   000DA2  EFD5  F006         	goto	i2u257_41
  2336   000DA6  EFD7  F006         	goto	i2u257_40
  2337   000DAA                     i2u257_41:
  2338   000DAA  EF24  F007         	goto	i2l178
  2339   000DAE                     i2u257_40:
  2340   000DAE                     
  2341                           ;usb_device.c: 786: {;usb_device.c: 787: for(i = 0; i < 4u; i++)
  2342   000DAE  0E00               	movlw	0
  2343   000DB0  6E1F               	movwf	USBDeviceTasks@i^0,c
  2344   000DB2                     i2l179:
  2345                           
  2346                           ;usb_device.c: 788: {;usb_device.c: 789: if(UIRbits.TRNIF)
  2347   000DB2  A668               	btfss	104,3,c	;volatile
  2348   000DB4  EFDE  F006         	goto	i2u258_41
  2349   000DB8  EFE0  F006         	goto	i2u258_40
  2350   000DBC                     i2u258_41:
  2351   000DBC  EF24  F007         	goto	i2l178
  2352   000DC0                     i2u258_40:
  2353   000DC0                     
  2354                           ;usb_device.c: 790: {;usb_device.c: 792: USTATcopy.Val = USTAT;
  2355   000DC0  CF6C F04D          	movff	3948,_USTATcopy	;volatile
  2356   000DC4                     
  2357                           ;usb_device.c: 793: endpoint_number = USTATcopy.endpoint_number;
  2358   000DC4  304D               	rrcf	_USTATcopy^0,w,c	;volatile
  2359   000DC6  32E8               	rrcf	wreg,f,c
  2360   000DC8  32E8               	rrcf	wreg,f,c
  2361   000DCA  0B0F               	andlw	15
  2362   000DCC  6E45               	movwf	_endpoint_number^0,c	;volatile
  2363   000DCE                     
  2364                           ;usb_device.c: 795: (UIR &= 0xF7);
  2365   000DCE  9668               	bcf	104,3,c	;volatile
  2366   000DD0                     
  2367                           ;usb_device.c: 800: if(USTATcopy.direction == 0)
  2368   000DD0  B44D               	btfsc	_USTATcopy^0,2,c	;volatile
  2369   000DD2  EFED  F006         	goto	i2u259_41
  2370   000DD6  EFEF  F006         	goto	i2u259_40
  2371   000DDA                     i2u259_41:
  2372   000DDA  EFF9  F006         	goto	i2l3574
  2373   000DDE                     i2u259_40:
  2374   000DDE                     
  2375                           ;usb_device.c: 801: {;usb_device.c: 802: ep_data_out[endpoint_number].bits.ping_pong_sta
      +                          te ^= 1;
  2376   000DDE  0E76               	movlw	low _ep_data_out
  2377   000DE0  2445               	addwf	_endpoint_number^0,w,c	;volatile
  2378   000DE2  6ED9               	movwf	fsr2l,c
  2379   000DE4  6ADA               	clrf	fsr2h,c
  2380   000DE6  0E00               	movlw	high _ep_data_out
  2381   000DE8  22DA               	addwfc	fsr2h,f,c
  2382   000DEA  0100               	movlb	0	; () banked
  2383   000DEC  70DF               	btg	indf2,0,c
  2384                           
  2385                           ;usb_device.c: 803: }
  2386   000DEE  EF01  F007         	goto	i2l3576
  2387   000DF2                     i2l3574:
  2388                           
  2389                           ;usb_device.c: 804: else;usb_device.c: 805: {;usb_device.c: 806: ep_data_in[endpoint_num
      +                          ber].bits.ping_pong_state ^= 1;
  2390   000DF2  0E78               	movlw	low _ep_data_in
  2391   000DF4  2445               	addwf	_endpoint_number^0,w,c	;volatile
  2392   000DF6  6ED9               	movwf	fsr2l,c
  2393   000DF8  6ADA               	clrf	fsr2h,c
  2394   000DFA  0E00               	movlw	high _ep_data_in
  2395   000DFC  22DA               	addwfc	fsr2h,f,c
  2396   000DFE  0100               	movlb	0	; () banked
  2397   000E00  70DF               	btg	indf2,0,c
  2398   000E02                     i2l3576:
  2399                           
  2400                           ; BSR set to: 0
  2401                           ;usb_device.c: 807: };usb_device.c: 812: if(endpoint_number == 0)
  2402   000E02  5045               	movf	_endpoint_number^0,w,c	;volatile
  2403   000E04  A4D8               	btfss	status,2,c
  2404   000E06  EF07  F007         	goto	i2u260_41
  2405   000E0A  EF09  F007         	goto	i2u260_40
  2406   000E0E                     i2u260_41:
  2407   000E0E  EF0D  F007         	goto	i2l3580
  2408   000E12                     i2u260_40:
  2409   000E12                     
  2410                           ; BSR set to: 0
  2411                           ;usb_device.c: 813: {;usb_device.c: 814: USBCtrlEPService();
  2412   000E12  ECDA  F00F         	call	_USBCtrlEPService	;wreg free
  2413                           
  2414                           ;usb_device.c: 815: }
  2415   000E16  EF1B  F007         	goto	i2l3582
  2416   000E1A                     i2l3580:
  2417                           
  2418                           ; BSR set to: 0
  2419                           ;usb_device.c: 816: else;usb_device.c: 817: {;usb_device.c: 818: USER_USB_CALLBACK_EVENT
      +                          _HANDLER((USB_EVENT)EVENT_TRANSFER,(uint8_t*)&USTATcopy.Val,0);
  2420   000E1A  0E00               	movlw	0
  2421   000E1C  6E10               	movwf	(USER_USB_CALLBACK_EVENT_HANDLER@event+1)^0,c
  2422   000E1E  0E72               	movlw	114
  2423   000E20  6E0F               	movwf	USER_USB_CALLBACK_EVENT_HANDLER@event^0,c
  2424   000E22  0E4D               	movlw	low _USTATcopy
  2425   000E24  6E11               	movwf	USER_USB_CALLBACK_EVENT_HANDLER@pdata^0,c
  2426   000E26  0E00               	movlw	high _USTATcopy
  2427   000E28  6E12               	movwf	(USER_USB_CALLBACK_EVENT_HANDLER@pdata+1)^0,c
  2428   000E2A  0E00               	movlw	0
  2429   000E2C  6E14               	movwf	(USER_USB_CALLBACK_EVENT_HANDLER@size+1)^0,c
  2430   000E2E  0E00               	movlw	0
  2431   000E30  6E13               	movwf	USER_USB_CALLBACK_EVENT_HANDLER@size^0,c
  2432   000E32  ECE8  F010         	call	_USER_USB_CALLBACK_EVENT_HANDLER	;wreg free
  2433   000E36                     i2l3582:
  2434   000E36  2A1F               	incf	USBDeviceTasks@i^0,f,c
  2435   000E38  0E03               	movlw	3
  2436   000E3A  641F               	cpfsgt	USBDeviceTasks@i^0,c
  2437   000E3C  EF22  F007         	goto	i2u261_41
  2438   000E40  EF24  F007         	goto	i2u261_40
  2439   000E44                     i2u261_41:
  2440   000E44  EFD9  F006         	goto	i2l179
  2441   000E48                     i2u261_40:
  2442   000E48                     i2l178:
  2443                           
  2444                           ;usb_device.c: 824: };usb_device.c: 825: };usb_device.c: 826: };usb_device.c: 828: {PIR2
      +                          bits.USBIF = 0;};
  2445   000E48  9AA1               	bcf	161,5,c	;volatile
  2446   000E4A                     i2l168:
  2447   000E4A  0012               	return		;funcret
  2448   000E4C                     __end_of_USBDeviceTasks:
  2449                           	callstack 0
  2450                           
  2451 ;; *************** function i2_USBDeviceInit *****************
  2452 ;; Defined at:
  2453 ;;		line 279 in file "usb_device.c"
  2454 ;; Parameters:    Size  Location     Type
  2455 ;;		None
  2456 ;; Auto vars:     Size  Location     Type
  2457 ;;  i               1    8[COMRAM] unsigned char 
  2458 ;; Return value:  Size  Location     Type
  2459 ;;                  1    wreg      void 
  2460 ;; Registers used:
  2461 ;;		wreg, fsr2l, fsr2h, status,2, status,0, prodl, prodh, cstack
  2462 ;; Tracked objects:
  2463 ;;		On entry : 0/0
  2464 ;;		On exit  : 0/0
  2465 ;;		Unchanged: 0/0
  2466 ;; Data sizes:     COMRAM   BANK0   BANK1   BANK2   BANK3   BANK4   BANK5   BANK6   BANK7
  2467 ;;      Params:         0       0       0       0       0       0       0       0       0
  2468 ;;      Locals:         1       0       0       0       0       0       0       0       0
  2469 ;;      Temps:          0       0       0       0       0       0       0       0       0
  2470 ;;      Totals:         1       0       0       0       0       0       0       0       0
  2471 ;;Total ram usage:        1 bytes
  2472 ;; Hardware stack levels used: 1
  2473 ;; Hardware stack levels required when called: 1
  2474 ;; This function calls:
  2475 ;;		i2_memset
  2476 ;; This function is called by:
  2477 ;;		_USBDeviceTasks
  2478 ;; This function uses a non-reentrant model
  2479 ;;
  2480                           
  2481                           	psect	text12
  2482   0015FC                     __ptext12:
  2483                           	callstack 0
  2484   0015FC                     i2_USBDeviceInit:
  2485                           	callstack 23
  2486   0015FC                     
  2487                           ;usb_device.c: 281: uint8_t i;;usb_device.c: 283: {PIE2bits.USBIE = 0;};
  2488   0015FC  9AA0               	bcf	160,5,c	;volatile
  2489   0015FE                     
  2490                           ;usb_device.c: 287: ;;usb_device.c: 290: {UEIR = 0;};
  2491   0015FE  0E00               	movlw	0
  2492   001600  6E6A               	movwf	106,c	;volatile
  2493                           
  2494                           ;usb_device.c: 293: {UIR = 0;};
  2495   001602  0E00               	movlw	0
  2496   001604  6E68               	movwf	104,c	;volatile
  2497                           
  2498                           ;usb_device.c: 296: UEP0 = 0;
  2499   001606  0E00               	movlw	0
  2500   001608  6E70               	movwf	112,c	;volatile
  2501   00160A                     
  2502                           ;usb_device.c: 298: memset((void*)&UEP1,0x00,(1));;
  2503   00160A  0E71               	movlw	113
  2504   00160C  6E01               	movwf	i2memset@p1^0,c
  2505   00160E  0E0F               	movlw	15
  2506   001610  6E02               	movwf	(i2memset@p1+1)^0,c
  2507   001612  0E00               	movlw	0
  2508   001614  6E04               	movwf	(i2memset@c+1)^0,c
  2509   001616  0E00               	movlw	0
  2510   001618  6E03               	movwf	i2memset@c^0,c
  2511   00161A  0E00               	movlw	0
  2512   00161C  6E06               	movwf	(i2memset@n+1)^0,c
  2513   00161E  0E01               	movlw	1
  2514   001620  6E05               	movwf	i2memset@n^0,c
  2515   001622  ECEF  F012         	call	i2_memset	;wreg free
  2516   001626                     
  2517                           ;usb_device.c: 300: { UCFG = 0x10 | 0x00 | 0x04 | 0x02; UEIE = 0x9F; UIE = 0x39 | 0x40 |
      +                           0x02; };
  2518   001626  0E16               	movlw	22
  2519   001628  6E6F               	movwf	111,c	;volatile
  2520   00162A  0E9F               	movlw	159
  2521   00162C  6E6B               	movwf	107,c	;volatile
  2522   00162E  0E7B               	movlw	123
  2523   001630  6E69               	movwf	105,c	;volatile
  2524   001632                     
  2525                           ;usb_device.c: 303: ;;usb_device.c: 306: ;;usb_device.c: 309: for(i = 0; i < (sizeof(BDT
      +                          )/sizeof(BDT_ENTRY)); i++)
  2526   001632  0E00               	movlw	0
  2527   001634  6E09               	movwf	i2USBDeviceInit@i^0,c
  2528   001636                     i2l3350:
  2529                           
  2530                           ;usb_device.c: 310: {;usb_device.c: 311: BDT[i].Val = 0x00;
  2531   001636  5009               	movf	i2USBDeviceInit@i^0,w,c
  2532   001638  0D04               	mullw	4
  2533   00163A  0E00               	movlw	0
  2534   00163C  24F3               	addwf	243,w,c
  2535   00163E  6ED9               	movwf	fsr2l,c
  2536   001640  0E04               	movlw	4
  2537   001642  20F4               	addwfc	prodh,w,c
  2538   001644  6EDA               	movwf	fsr2h,c
  2539   001646  6ADE               	clrf	postinc2,c
  2540   001648  6ADE               	clrf	postinc2,c
  2541   00164A  6ADE               	clrf	postinc2,c
  2542   00164C  6ADD               	clrf	postdec2,c
  2543   00164E  2A09               	incf	i2USBDeviceInit@i^0,f,c
  2544   001650  0E07               	movlw	7
  2545   001652  6409               	cpfsgt	i2USBDeviceInit@i^0,c
  2546   001654  EF2E  F00B         	goto	i2u233_41
  2547   001658  EF30  F00B         	goto	i2u233_40
  2548   00165C                     i2u233_41:
  2549   00165C  EF1B  F00B         	goto	i2l3350
  2550   001660                     i2u233_40:
  2551   001660                     
  2552                           ;usb_device.c: 312: };usb_device.c: 315: UCONbits.PPBRST = 1;
  2553   001660  8C6D               	bsf	109,6,c	;volatile
  2554   001662                     
  2555                           ;usb_device.c: 318: UADDR = 0x00;
  2556   001662  0E00               	movlw	0
  2557   001664  6E6E               	movwf	110,c	;volatile
  2558   001666                     
  2559                           ;usb_device.c: 321: UCONbits.PKTDIS = 0;
  2560   001666  986D               	bcf	109,4,c	;volatile
  2561   001668                     
  2562                           ;usb_device.c: 324: UCONbits.PPBRST = 0;
  2563   001668  9C6D               	bcf	109,6,c	;volatile
  2564   00166A                     i2l3362:
  2565                           
  2566                           ;usb_device.c: 328: {;usb_device.c: 329: (UIR &= 0xF7);
  2567   00166A  9668               	bcf	104,3,c	;volatile
  2568   00166C                     
  2569                           ;usb_device.c: 331: inPipes[0].info.Val = 0;
  2570   00166C  0E00               	movlw	0
  2571   00166E  0100               	movlb	0	; () banked
  2572   001670  6F6B               	movwf	(_inPipes+3)& (0+255),b	;volatile
  2573   001672                     
  2574                           ; BSR set to: 0
  2575                           ;usb_device.c: 332: outPipes[0].info.Val = 0;
  2576   001672  0E00               	movlw	0
  2577   001674  6F63               	movwf	(_outPipes+3)& (0+255),b	;volatile
  2578   001676                     
  2579                           ; BSR set to: 0
  2580                           ;usb_device.c: 333: outPipes[0].wCount.Val = 0;
  2581   001676  0E00               	movlw	0
  2582   001678  6F65               	movwf	(_outPipes+5)& (0+255),b	;volatile
  2583   00167A  0E00               	movlw	0
  2584   00167C  6F64               	movwf	(_outPipes+4)& (0+255),b	;volatile
  2585   00167E                     
  2586                           ; BSR set to: 0
  2587                           ;usb_device.c: 334: }while(UIRbits.TRNIF == 1);
  2588   00167E  B668               	btfsc	104,3,c	;volatile
  2589   001680  EF44  F00B         	goto	i2u234_41
  2590   001684  EF46  F00B         	goto	i2u234_40
  2591   001688                     i2u234_41:
  2592   001688  EF35  F00B         	goto	i2l3362
  2593   00168C                     i2u234_40:
  2594   00168C                     
  2595                           ; BSR set to: 0
  2596                           ;usb_device.c: 338: USBStatusStageEnabledFlag1 = 1;
  2597   00168C  0E01               	movlw	1
  2598   00168E  6E41               	movwf	_USBStatusStageEnabledFlag1^0,c	;volatile
  2599                           
  2600                           ;usb_device.c: 339: USBStatusStageEnabledFlag2 = 1;
  2601   001690  0E01               	movlw	1
  2602   001692  6E40               	movwf	_USBStatusStageEnabledFlag2^0,c	;volatile
  2603                           
  2604                           ;usb_device.c: 341: USBDeferINDataStagePackets = 0;
  2605   001694  0E00               	movlw	0
  2606   001696  6E3F               	movwf	_USBDeferINDataStagePackets^0,c	;volatile
  2607                           
  2608                           ;usb_device.c: 342: USBDeferOUTDataStagePackets = 0;
  2609   001698  0E00               	movlw	0
  2610   00169A  6E3E               	movwf	_USBDeferOUTDataStagePackets^0,c	;volatile
  2611                           
  2612                           ;usb_device.c: 343: USBBusIsSuspended = 0;
  2613   00169C  0E00               	movlw	0
  2614   00169E  6E46               	movwf	_USBBusIsSuspended^0,c	;volatile
  2615                           
  2616                           ;usb_device.c: 347: for(i = 0; i < (uint8_t)(1+1u); i++)
  2617   0016A0  0E00               	movlw	0
  2618   0016A2  6E09               	movwf	i2USBDeviceInit@i^0,c
  2619   0016A4                     i2l3378:
  2620                           
  2621                           ;usb_device.c: 348: {;usb_device.c: 349: pBDTEntryIn[i] = 0u;
  2622   0016A4  5009               	movf	i2USBDeviceInit@i^0,w,c
  2623   0016A6  0D02               	mullw	2
  2624   0016A8  0E6E               	movlw	low _pBDTEntryIn
  2625   0016AA  24F3               	addwf	243,w,c
  2626   0016AC  6ED9               	movwf	fsr2l,c
  2627   0016AE  0E00               	movlw	high _pBDTEntryIn
  2628   0016B0  20F4               	addwfc	prodh,w,c
  2629   0016B2  6EDA               	movwf	fsr2h,c
  2630   0016B4  6ADE               	clrf	postinc2,c
  2631   0016B6  6ADD               	clrf	postdec2,c
  2632                           
  2633                           ;usb_device.c: 350: pBDTEntryOut[i] = 0u;
  2634   0016B8  5009               	movf	i2USBDeviceInit@i^0,w,c
  2635   0016BA  0D02               	mullw	2
  2636   0016BC  0E72               	movlw	low _pBDTEntryOut
  2637   0016BE  24F3               	addwf	243,w,c
  2638   0016C0  6ED9               	movwf	fsr2l,c
  2639   0016C2  0E00               	movlw	high _pBDTEntryOut
  2640   0016C4  20F4               	addwfc	prodh,w,c
  2641   0016C6  6EDA               	movwf	fsr2h,c
  2642   0016C8  6ADE               	clrf	postinc2,c
  2643   0016CA  6ADD               	clrf	postdec2,c
  2644   0016CC                     
  2645                           ;usb_device.c: 351: ep_data_in[i].Val = 0u;
  2646   0016CC  0E78               	movlw	low _ep_data_in
  2647   0016CE  2409               	addwf	i2USBDeviceInit@i^0,w,c
  2648   0016D0  6ED9               	movwf	fsr2l,c
  2649   0016D2  6ADA               	clrf	fsr2h,c
  2650   0016D4  0E00               	movlw	high _ep_data_in
  2651   0016D6  22DA               	addwfc	fsr2h,f,c
  2652   0016D8  6ADF               	clrf	indf2,c
  2653   0016DA                     
  2654                           ;usb_device.c: 352: ep_data_out[i].Val = 0u;
  2655   0016DA  0E76               	movlw	low _ep_data_out
  2656   0016DC  2409               	addwf	i2USBDeviceInit@i^0,w,c
  2657   0016DE  6ED9               	movwf	fsr2l,c
  2658   0016E0  6ADA               	clrf	fsr2h,c
  2659   0016E2  0E00               	movlw	high _ep_data_out
  2660   0016E4  22DA               	addwfc	fsr2h,f,c
  2661   0016E6  6ADF               	clrf	indf2,c
  2662   0016E8  2A09               	incf	i2USBDeviceInit@i^0,f,c
  2663   0016EA  0E01               	movlw	1
  2664   0016EC  6409               	cpfsgt	i2USBDeviceInit@i^0,c
  2665   0016EE  EF7B  F00B         	goto	i2u235_41
  2666   0016F2  EF7D  F00B         	goto	i2u235_40
  2667   0016F6                     i2u235_41:
  2668   0016F6  EF52  F00B         	goto	i2l3378
  2669   0016FA                     i2u235_40:
  2670   0016FA                     
  2671                           ;usb_device.c: 353: };usb_device.c: 356: pBDTEntryIn[0] = (volatile BDT_ENTRY*)&BDT[2];
  2672   0016FA  0E08               	movlw	8
  2673   0016FC  0100               	movlb	0	; () banked
  2674   0016FE  6F6E               	movwf	_pBDTEntryIn& (0+255),b
  2675   001700  0E04               	movlw	4
  2676   001702  6F6F               	movwf	(_pBDTEntryIn+1)& (0+255),b
  2677   001704                     
  2678                           ; BSR set to: 0
  2679                           ;usb_device.c: 358: UEP0 = 0x06|0x10;
  2680   001704  0E16               	movlw	22
  2681   001706  6E70               	movwf	112,c	;volatile
  2682   001708                     
  2683                           ; BSR set to: 0
  2684                           ;usb_device.c: 360: BDT[0].ADR = ((uint16_t)(&SetupPkt));
  2685   001708  0E04               	movlw	4
  2686   00170A  0104               	movlb	4	; () banked
  2687   00170C  6F03               	movwf	3,b	;volatile
  2688   00170E  0E20               	movlw	32
  2689   001710  6F02               	movwf	2,b	;volatile
  2690   001712                     
  2691                           ; BSR set to: 4
  2692                           ;usb_device.c: 361: BDT[0].CNT = 8;
  2693   001712  0E08               	movlw	8
  2694   001714  6F01               	movwf	1,b	;volatile
  2695   001716                     
  2696                           ; BSR set to: 4
  2697                           ;usb_device.c: 362: BDT[0].STAT.Val = 0x00|0x04;
  2698   001716  0E04               	movlw	4
  2699   001718  6F00               	movwf	0,b	;volatile
  2700   00171A                     
  2701                           ; BSR set to: 4
  2702                           ;usb_device.c: 363: BDT[0].STAT.Val |= 0x80;
  2703   00171A  8F00               	bsf	0,7,b	;volatile
  2704   00171C                     
  2705                           ; BSR set to: 4
  2706                           ;usb_device.c: 366: USBActiveConfiguration = 0;
  2707   00171C  0E00               	movlw	0
  2708   00171E  6E4F               	movwf	_USBActiveConfiguration^0,c	;volatile
  2709   001720                     
  2710                           ; BSR set to: 4
  2711                           ;usb_device.c: 368: USB1msTickCount = 0;
  2712   001720  0E00               	movlw	0
  2713   001722  6E2A               	movwf	_USB1msTickCount^0,c	;volatile
  2714   001724  0E00               	movlw	0
  2715   001726  6E2B               	movwf	(_USB1msTickCount+1)^0,c	;volatile
  2716   001728  0E00               	movlw	0
  2717   00172A  6E2C               	movwf	(_USB1msTickCount+2)^0,c	;volatile
  2718   00172C  0E00               	movlw	0
  2719   00172E  6E2D               	movwf	(_USB1msTickCount+3)^0,c	;volatile
  2720   001730                     
  2721                           ; BSR set to: 4
  2722                           ;usb_device.c: 369: USBTicksSinceSuspendEnd = 0;
  2723   001730  0E00               	movlw	0
  2724   001732  6E3D               	movwf	_USBTicksSinceSuspendEnd^0,c	;volatile
  2725   001734                     
  2726                           ; BSR set to: 4
  2727                           ;usb_device.c: 372: USBDeviceState = DETACHED_STATE;
  2728   001734  0E00               	movlw	0
  2729   001736  6E4A               	movwf	_USBDeviceState^0,c	;volatile
  2730   001738                     
  2731                           ; BSR set to: 4
  2732   001738  0012               	return		;funcret
  2733   00173A                     __end_ofi2_USBDeviceInit:
  2734                           	callstack 0
  2735                           
  2736 ;; *************** function _USBWakeFromSuspend *****************
  2737 ;; Defined at:
  2738 ;;		line 2308 in file "usb_device.c"
  2739 ;; Parameters:    Size  Location     Type
  2740 ;;		None
  2741 ;; Auto vars:     Size  Location     Type
  2742 ;;		None
  2743 ;; Return value:  Size  Location     Type
  2744 ;;                  1    wreg      void 
  2745 ;; Registers used:
  2746 ;;		wreg, fsr2l, fsr2h, status,2, status,0, prodl, prodh, cstack
  2747 ;; Tracked objects:
  2748 ;;		On entry : 0/0
  2749 ;;		On exit  : 0/0
  2750 ;;		Unchanged: 0/0
  2751 ;; Data sizes:     COMRAM   BANK0   BANK1   BANK2   BANK3   BANK4   BANK5   BANK6   BANK7
  2752 ;;      Params:         0       0       0       0       0       0       0       0       0
  2753 ;;      Locals:         0       0       0       0       0       0       0       0       0
  2754 ;;      Temps:          0       0       0       0       0       0       0       0       0
  2755 ;;      Totals:         0       0       0       0       0       0       0       0       0
  2756 ;;Total ram usage:        0 bytes
  2757 ;; Hardware stack levels used: 1
  2758 ;; Hardware stack levels required when called: 4
  2759 ;; This function calls:
  2760 ;;		_USER_USB_CALLBACK_EVENT_HANDLER
  2761 ;; This function is called by:
  2762 ;;		_USBDeviceTasks
  2763 ;; This function uses a non-reentrant model
  2764 ;;
  2765                           
  2766                           	psect	text13
  2767   002566                     __ptext13:
  2768                           	callstack 0
  2769   002566                     _USBWakeFromSuspend:
  2770                           	callstack 20
  2771   002566                     
  2772                           ;usb_device.c: 2310: USBBusIsSuspended = 0;
  2773   002566  0E00               	movlw	0
  2774   002568  6E46               	movwf	_USBBusIsSuspended^0,c	;volatile
  2775   00256A                     
  2776                           ;usb_device.c: 2316: USER_USB_CALLBACK_EVENT_HANDLER((USB_EVENT)EVENT_RESUME,0,0);
  2777   00256A  0E00               	movlw	0
  2778   00256C  6E10               	movwf	(USER_USB_CALLBACK_EVENT_HANDLER@event+1)^0,c
  2779   00256E  0E74               	movlw	116
  2780   002570  6E0F               	movwf	USER_USB_CALLBACK_EVENT_HANDLER@event^0,c
  2781   002572  0E00               	movlw	0
  2782   002574  6E11               	movwf	USER_USB_CALLBACK_EVENT_HANDLER@pdata^0,c
  2783   002576  0E00               	movlw	0
  2784   002578  6E12               	movwf	(USER_USB_CALLBACK_EVENT_HANDLER@pdata+1)^0,c
  2785   00257A  0E00               	movlw	0
  2786   00257C  6E14               	movwf	(USER_USB_CALLBACK_EVENT_HANDLER@size+1)^0,c
  2787   00257E  0E00               	movlw	0
  2788   002580  6E13               	movwf	USER_USB_CALLBACK_EVENT_HANDLER@size^0,c
  2789   002582  ECE8  F010         	call	_USER_USB_CALLBACK_EVENT_HANDLER	;wreg free
  2790   002586                     
  2791                           ;usb_device.c: 2323: UCONbits.SUSPND = 0;
  2792   002586  926D               	bcf	109,1,c	;volatile
  2793   002588                     
  2794                           ;usb_device.c: 2328: UIEbits.ACTVIE = 0;
  2795   002588  9469               	bcf	105,2,c	;volatile
  2796                           
  2797                           ;usb_device.c: 2346: while(UIRbits.ACTVIF)
  2798   00258A  EFC8  F012         	goto	i2l3272
  2799   00258E                     i2l3270:
  2800                           
  2801                           ;usb_device.c: 2348: {;usb_device.c: 2349: (UIR &= 0xFB);
  2802   00258E  9468               	bcf	104,2,c	;volatile
  2803   002590                     i2l3272:
  2804   002590  B468               	btfsc	104,2,c	;volatile
  2805   002592  EFCD  F012         	goto	i2u224_41
  2806   002596  EFCF  F012         	goto	i2u224_40
  2807   00259A                     i2u224_41:
  2808   00259A  EFC7  F012         	goto	i2l3270
  2809   00259E                     i2u224_40:
  2810   00259E                     
  2811                           ;usb_device.c: 2350: };usb_device.c: 2352: USBTicksSinceSuspendEnd = 0;
  2812   00259E  0E00               	movlw	0
  2813   0025A0  6E3D               	movwf	_USBTicksSinceSuspendEnd^0,c	;volatile
  2814   0025A2  0012               	return		;funcret
  2815   0025A4                     __end_of_USBWakeFromSuspend:
  2816                           	callstack 0
  2817                           
  2818 ;; *************** function _USBSuspend *****************
  2819 ;; Defined at:
  2820 ;;		line 2250 in file "usb_device.c"
  2821 ;; Parameters:    Size  Location     Type
  2822 ;;		None
  2823 ;; Auto vars:     Size  Location     Type
  2824 ;;		None
  2825 ;; Return value:  Size  Location     Type
  2826 ;;                  1    wreg      void 
  2827 ;; Registers used:
  2828 ;;		wreg, fsr2l, fsr2h, status,2, status,0, prodl, prodh, cstack
  2829 ;; Tracked objects:
  2830 ;;		On entry : 0/0
  2831 ;;		On exit  : 0/0
  2832 ;;		Unchanged: 0/0
  2833 ;; Data sizes:     COMRAM   BANK0   BANK1   BANK2   BANK3   BANK4   BANK5   BANK6   BANK7
  2834 ;;      Params:         0       0       0       0       0       0       0       0       0
  2835 ;;      Locals:         0       0       0       0       0       0       0       0       0
  2836 ;;      Temps:          0       0       0       0       0       0       0       0       0
  2837 ;;      Totals:         0       0       0       0       0       0       0       0       0
  2838 ;;Total ram usage:        0 bytes
  2839 ;; Hardware stack levels used: 1
  2840 ;; Hardware stack levels required when called: 4
  2841 ;; This function calls:
  2842 ;;		_USER_USB_CALLBACK_EVENT_HANDLER
  2843 ;; This function is called by:
  2844 ;;		_USBDeviceTasks
  2845 ;; This function uses a non-reentrant model
  2846 ;;
  2847                           
  2848                           	psect	text14
  2849   0026A8                     __ptext14:
  2850                           	callstack 0
  2851   0026A8                     _USBSuspend:
  2852                           	callstack 20
  2853   0026A8                     
  2854                           ;usb_device.c: 2275: UIEbits.ACTVIE = 1;
  2855   0026A8  8469               	bsf	105,2,c	;volatile
  2856   0026AA                     
  2857                           ;usb_device.c: 2276: (UIR &= 0xEF);
  2858   0026AA  9868               	bcf	104,4,c	;volatile
  2859   0026AC                     
  2860                           ;usb_device.c: 2279: UCONbits.SUSPND = 1;
  2861   0026AC  826D               	bsf	109,1,c	;volatile
  2862   0026AE                     
  2863                           ;usb_device.c: 2282: USBBusIsSuspended = 1;
  2864   0026AE  0E01               	movlw	1
  2865   0026B0  6E46               	movwf	_USBBusIsSuspended^0,c	;volatile
  2866   0026B2                     
  2867                           ;usb_device.c: 2283: USBTicksSinceSuspendEnd = 0;
  2868   0026B2  0E00               	movlw	0
  2869   0026B4  6E3D               	movwf	_USBTicksSinceSuspendEnd^0,c	;volatile
  2870   0026B6                     
  2871                           ;usb_device.c: 2290: USER_USB_CALLBACK_EVENT_HANDLER((USB_EVENT)EVENT_SUSPEND,0,0);
  2872   0026B6  0E00               	movlw	0
  2873   0026B8  6E10               	movwf	(USER_USB_CALLBACK_EVENT_HANDLER@event+1)^0,c
  2874   0026BA  0E75               	movlw	117
  2875   0026BC  6E0F               	movwf	USER_USB_CALLBACK_EVENT_HANDLER@event^0,c
  2876   0026BE  0E00               	movlw	0
  2877   0026C0  6E11               	movwf	USER_USB_CALLBACK_EVENT_HANDLER@pdata^0,c
  2878   0026C2  0E00               	movlw	0
  2879   0026C4  6E12               	movwf	(USER_USB_CALLBACK_EVENT_HANDLER@pdata+1)^0,c
  2880   0026C6  0E00               	movlw	0
  2881   0026C8  6E14               	movwf	(USER_USB_CALLBACK_EVENT_HANDLER@size+1)^0,c
  2882   0026CA  0E00               	movlw	0
  2883   0026CC  6E13               	movwf	USER_USB_CALLBACK_EVENT_HANDLER@size^0,c
  2884   0026CE  ECE8  F010         	call	_USER_USB_CALLBACK_EVENT_HANDLER	;wreg free
  2885   0026D2  0012               	return		;funcret
  2886   0026D4                     __end_of_USBSuspend:
  2887                           	callstack 0
  2888                           
  2889 ;; *************** function _USBStallHandler *****************
  2890 ;; Defined at:
  2891 ;;		line 2207 in file "usb_device.c"
  2892 ;; Parameters:    Size  Location     Type
  2893 ;;		None
  2894 ;; Auto vars:     Size  Location     Type
  2895 ;;		None
  2896 ;; Return value:  Size  Location     Type
  2897 ;;                  1    wreg      void 
  2898 ;; Registers used:
  2899 ;;		wreg, fsr2l, fsr2h, status,2, status,0
  2900 ;; Tracked objects:
  2901 ;;		On entry : 0/0
  2902 ;;		On exit  : 0/0
  2903 ;;		Unchanged: 0/0
  2904 ;; Data sizes:     COMRAM   BANK0   BANK1   BANK2   BANK3   BANK4   BANK5   BANK6   BANK7
  2905 ;;      Params:         0       0       0       0       0       0       0       0       0
  2906 ;;      Locals:         0       0       0       0       0       0       0       0       0
  2907 ;;      Temps:          1       0       0       0       0       0       0       0       0
  2908 ;;      Totals:         1       0       0       0       0       0       0       0       0
  2909 ;;Total ram usage:        1 bytes
  2910 ;; Hardware stack levels used: 1
  2911 ;; This function calls:
  2912 ;;		Nothing
  2913 ;; This function is called by:
  2914 ;;		_USBDeviceTasks
  2915 ;; This function uses a non-reentrant model
  2916 ;;
  2917                           
  2918                           	psect	text15
  2919   002370                     __ptext15:
  2920                           	callstack 0
  2921   002370                     _USBStallHandler:
  2922                           	callstack 24
  2923   002370                     
  2924                           ;usb_device.c: 2219: if(UEP0bits.EPSTALL == 1)
  2925   002370  A070               	btfss	112,0,c	;volatile
  2926   002372  EFBD  F011         	goto	i2u227_41
  2927   002376  EFBF  F011         	goto	i2u227_40
  2928   00237A                     i2u227_41:
  2929   00237A  EFE6  F011         	goto	i2l318
  2930   00237E                     i2u227_40:
  2931   00237E                     
  2932                           ;usb_device.c: 2220: {;usb_device.c: 2222: if((pBDTEntryEP0OutCurrent->STAT.Val == 0x80)
      +                           && (pBDTEntryIn[0]->STAT.Val == (0x80|0x04)))
  2933   00237E  C038  FFD9         	movff	_pBDTEntryEP0OutCurrent,fsr2l
  2934   002382  C039  FFDA         	movff	_pBDTEntryEP0OutCurrent+1,fsr2h
  2935   002386  0E80               	movlw	128
  2936   002388  18DE               	xorwf	postinc2,w,c
  2937   00238A  A4D8               	btfss	status,2,c
  2938   00238C  EFCA  F011         	goto	i2u228_41
  2939   002390  EFCC  F011         	goto	i2u228_40
  2940   002394                     i2u228_41:
  2941   002394  EFE5  F011         	goto	i2l3308
  2942   002398                     i2u228_40:
  2943   002398  C06E  FFD9         	movff	_pBDTEntryIn,fsr2l
  2944   00239C  C06F  FFDA         	movff	_pBDTEntryIn+1,fsr2h
  2945   0023A0  0E84               	movlw	132
  2946   0023A2  18DE               	xorwf	postinc2,w,c
  2947   0023A4  A4D8               	btfss	status,2,c
  2948   0023A6  EFD7  F011         	goto	i2u229_41
  2949   0023AA  EFD9  F011         	goto	i2u229_40
  2950   0023AE                     i2u229_41:
  2951   0023AE  EFE5  F011         	goto	i2l3308
  2952   0023B2                     i2u229_40:
  2953   0023B2                     
  2954                           ;usb_device.c: 2223: {;usb_device.c: 2225: pBDTEntryEP0OutCurrent->STAT.Val = 0x00|(0x08
      +                           & 0x08)|0x04;
  2955   0023B2  C038  FFD9         	movff	_pBDTEntryEP0OutCurrent,fsr2l
  2956   0023B6  C039  FFDA         	movff	_pBDTEntryEP0OutCurrent+1,fsr2h
  2957   0023BA  0E0C               	movlw	12
  2958   0023BC  6EDF               	movwf	indf2,c
  2959   0023BE                     
  2960                           ;usb_device.c: 2226: pBDTEntryEP0OutCurrent->STAT.Val |= 0x80;
  2961   0023BE  C038  FFD9         	movff	_pBDTEntryEP0OutCurrent,fsr2l
  2962   0023C2  C039  FFDA         	movff	_pBDTEntryEP0OutCurrent+1,fsr2h
  2963   0023C6  0E00               	movlw	0
  2964   0023C8  8EDB               	bsf	plusw2,7,c
  2965   0023CA                     i2l3308:
  2966                           
  2967                           ;usb_device.c: 2227: };usb_device.c: 2228: UEP0bits.EPSTALL = 0;
  2968   0023CA  9070               	bcf	112,0,c	;volatile
  2969   0023CC                     i2l318:
  2970                           
  2971                           ;usb_device.c: 2229: };usb_device.c: 2231: (UIR &= 0xDF);
  2972   0023CC  9A68               	bcf	104,5,c	;volatile
  2973   0023CE  0012               	return		;funcret
  2974   0023D0                     __end_of_USBStallHandler:
  2975                           	callstack 0
  2976                           
  2977 ;; *************** function _USBIncrement1msInternalTimers *****************
  2978 ;; Defined at:
  2979 ;;		line 2996 in file "usb_device.c"
  2980 ;; Parameters:    Size  Location     Type
  2981 ;;		None
  2982 ;; Auto vars:     Size  Location     Type
  2983 ;;		None
  2984 ;; Return value:  Size  Location     Type
  2985 ;;                  1    wreg      void 
  2986 ;; Registers used:
  2987 ;;		wreg, status,2, status,0
  2988 ;; Tracked objects:
  2989 ;;		On entry : 0/0
  2990 ;;		On exit  : 0/0
  2991 ;;		Unchanged: 0/0
  2992 ;; Data sizes:     COMRAM   BANK0   BANK1   BANK2   BANK3   BANK4   BANK5   BANK6   BANK7
  2993 ;;      Params:         0       0       0       0       0       0       0       0       0
  2994 ;;      Locals:         0       0       0       0       0       0       0       0       0
  2995 ;;      Temps:          0       0       0       0       0       0       0       0       0
  2996 ;;      Totals:         0       0       0       0       0       0       0       0       0
  2997 ;;Total ram usage:        0 bytes
  2998 ;; Hardware stack levels used: 1
  2999 ;; This function calls:
  3000 ;;		Nothing
  3001 ;; This function is called by:
  3002 ;;		_USBDeviceTasks
  3003 ;; This function uses a non-reentrant model
  3004 ;;
  3005                           
  3006                           	psect	text16
  3007   002616                     __ptext16:
  3008                           	callstack 0
  3009   002616                     _USBIncrement1msInternalTimers:
  3010                           	callstack 24
  3011   002616                     
  3012                           ;usb_device.c: 3004: USB1msTickCount++;
  3013   002616  0E01               	movlw	1
  3014   002618  262A               	addwf	_USB1msTickCount^0,f,c	;volatile
  3015   00261A  0E00               	movlw	0
  3016   00261C  222B               	addwfc	(_USB1msTickCount+1)^0,f,c	;volatile
  3017   00261E  222C               	addwfc	(_USB1msTickCount+2)^0,f,c	;volatile
  3018   002620  222D               	addwfc	(_USB1msTickCount+3)^0,f,c	;volatile
  3019   002622                     
  3020                           ;usb_device.c: 3005: if(USBBusIsSuspended == 0)
  3021   002622  5046               	movf	_USBBusIsSuspended^0,w,c	;volatile
  3022   002624  A4D8               	btfss	status,2,c
  3023   002626  EF17  F013         	goto	i2u225_41
  3024   00262A  EF19  F013         	goto	i2u225_40
  3025   00262E                     i2u225_41:
  3026   00262E  EF23  F013         	goto	i2l410
  3027   002632                     i2u225_40:
  3028   002632                     
  3029                           ;usb_device.c: 3006: {;usb_device.c: 3007: USBTicksSinceSuspendEnd++;
  3030   002632  2A3D               	incf	_USBTicksSinceSuspendEnd^0,f,c	;volatile
  3031   002634                     
  3032                           ;usb_device.c: 3009: if(USBTicksSinceSuspendEnd == 0)
  3033   002634  503D               	movf	_USBTicksSinceSuspendEnd^0,w,c	;volatile
  3034   002636  A4D8               	btfss	status,2,c
  3035   002638  EF20  F013         	goto	i2u226_41
  3036   00263C  EF22  F013         	goto	i2u226_40
  3037   002640                     i2u226_41:
  3038   002640  EF23  F013         	goto	i2l410
  3039   002644                     i2u226_40:
  3040   002644                     
  3041                           ;usb_device.c: 3010: {;usb_device.c: 3011: USBTicksSinceSuspendEnd = 255;
  3042   002644  683D               	setf	_USBTicksSinceSuspendEnd^0,c	;volatile
  3043   002646                     i2l410:
  3044   002646  0012               	return		;funcret
  3045   002648                     __end_of_USBIncrement1msInternalTimers:
  3046                           	callstack 0
  3047                           
  3048 ;; *************** function _USBCtrlEPService *****************
  3049 ;; Defined at:
  3050 ;;		line 2377 in file "usb_device.c"
  3051 ;; Parameters:    Size  Location     Type
  3052 ;;		None
  3053 ;; Auto vars:     Size  Location     Type
  3054 ;;		None
  3055 ;; Return value:  Size  Location     Type
  3056 ;;                  1    wreg      void 
  3057 ;; Registers used:
  3058 ;;		wreg, fsr1l, fsr1h, fsr2l, fsr2h, status,2, status,0, tblptrl, tblptrh, tblptru, prodl, prodh, cstack
  3059 ;; Tracked objects:
  3060 ;;		On entry : 0/0
  3061 ;;		On exit  : 0/0
  3062 ;;		Unchanged: 0/0
  3063 ;; Data sizes:     COMRAM   BANK0   BANK1   BANK2   BANK3   BANK4   BANK5   BANK6   BANK7
  3064 ;;      Params:         0       0       0       0       0       0       0       0       0
  3065 ;;      Locals:         0       0       0       0       0       0       0       0       0
  3066 ;;      Temps:          1       0       0       0       0       0       0       0       0
  3067 ;;      Totals:         1       0       0       0       0       0       0       0       0
  3068 ;;Total ram usage:        1 bytes
  3069 ;; Hardware stack levels used: 1
  3070 ;; Hardware stack levels required when called: 7
  3071 ;; This function calls:
  3072 ;;		_USBCtrlTrfInHandler
  3073 ;;		_USBCtrlTrfOutHandler
  3074 ;;		_USBCtrlTrfSetupHandler
  3075 ;;		_memcpy
  3076 ;; This function is called by:
  3077 ;;		_USBDeviceTasks
  3078 ;; This function uses a non-reentrant model
  3079 ;;
  3080                           
  3081                           	psect	text17
  3082   001FB4                     __ptext17:
  3083                           	callstack 0
  3084   001FB4                     _USBCtrlEPService:
  3085                           	callstack 17
  3086   001FB4                     
  3087                           ;usb_device.c: 2383: USBStatusStageTimeoutCounter = (uint8_t)45;
  3088   001FB4  0E2D               	movlw	45
  3089   001FB6  6E43               	movwf	_USBStatusStageTimeoutCounter^0,c	;volatile
  3090   001FB8                     
  3091                           ;usb_device.c: 2387: if((USTATcopy.Val & ~0x02) == 0x00)
  3092   001FB8  C04D  F01E         	movff	_USTATcopy,??_USBCtrlEPService	;volatile
  3093   001FBC  0EFD               	movlw	253
  3094   001FBE  161E               	andwf	??_USBCtrlEPService^0,f,c
  3095   001FC0  A4D8               	btfss	status,2,c
  3096   001FC2  EFE5  F00F         	goto	i2u230_41
  3097   001FC6  EFE7  F00F         	goto	i2u230_40
  3098   001FCA                     i2u230_41:
  3099   001FCA  EF29  F010         	goto	i2l3328
  3100   001FCE                     i2u230_40:
  3101   001FCE                     
  3102                           ;usb_device.c: 2388: {;usb_device.c: 2391: pBDTEntryEP0OutCurrent = (volatile BDT_ENTRY*
      +                          )&BDT[(USTATcopy.Val & 0x7E)>>1];
  3103   001FCE  C04D  F01E         	movff	_USTATcopy,??_USBCtrlEPService	;volatile
  3104   001FD2  90D8               	bcf	status,0,c
  3105   001FD4  321E               	rrcf	??_USBCtrlEPService^0,f,c
  3106   001FD6  0E3F               	movlw	63
  3107   001FD8  161E               	andwf	??_USBCtrlEPService^0,f,c
  3108   001FDA  501E               	movf	??_USBCtrlEPService^0,w,c
  3109   001FDC  0D04               	mullw	4
  3110   001FDE  0E00               	movlw	0
  3111   001FE0  24F3               	addwf	243,w,c
  3112   001FE2  6E38               	movwf	_pBDTEntryEP0OutCurrent^0,c
  3113   001FE4  0E04               	movlw	4
  3114   001FE6  20F4               	addwfc	prodh,w,c
  3115   001FE8  6E39               	movwf	(_pBDTEntryEP0OutCurrent+1)^0,c
  3116   001FEA                     
  3117                           ;usb_device.c: 2399: pBDTEntryEP0OutNext = pBDTEntryEP0OutCurrent;
  3118   001FEA  C038  F036         	movff	_pBDTEntryEP0OutCurrent,_pBDTEntryEP0OutNext
  3119   001FEE  C039  F037         	movff	_pBDTEntryEP0OutCurrent+1,_pBDTEntryEP0OutNext+1
  3120   001FF2                     
  3121                           ;usb_device.c: 2401: pBDTEntryEP0OutNext = (volatile BDT_ENTRY*)(((uintptr_t)pBDTEntryEP
      +                          0OutNext) ^ 0x0004);
  3122   001FF2  0E04               	movlw	4
  3123   001FF4  1836               	xorwf	_pBDTEntryEP0OutNext^0,w,c
  3124   001FF6  6E36               	movwf	_pBDTEntryEP0OutNext^0,c
  3125   001FF8  5037               	movf	(_pBDTEntryEP0OutNext+1)^0,w,c
  3126   001FFA  6E37               	movwf	(_pBDTEntryEP0OutNext+1)^0,c
  3127   001FFC                     
  3128                           ;usb_device.c: 2404: if(pBDTEntryEP0OutCurrent->STAT.PID == 0xD)
  3129   001FFC  C038  FFD9         	movff	_pBDTEntryEP0OutCurrent,fsr2l
  3130   002000  C039  FFDA         	movff	_pBDTEntryEP0OutCurrent+1,fsr2h
  3131   002004  30DF               	rrcf	223,w,c
  3132   002006  32E8               	rrcf	wreg,f,c
  3133   002008  0B0F               	andlw	15
  3134   00200A  0A0D               	xorlw	13
  3135   00200C  A4D8               	btfss	status,2,c
  3136   00200E  EF0B  F010         	goto	i2u231_41
  3137   002012  EF0D  F010         	goto	i2u231_40
  3138   002016                     i2u231_41:
  3139   002016  EF25  F010         	goto	i2l3326
  3140   00201A                     i2u231_40:
  3141   00201A                     
  3142                           ;usb_device.c: 2405: {;usb_device.c: 2410: memcpy((uint8_t*)&SetupPkt, (uint8_t*)((void 
      +                          *)(pBDTEntryEP0OutCurrent->ADR)), 8);
  3143   00201A  0E20               	movlw	32
  3144   00201C  6E01               	movwf	memcpy@d1^0,c
  3145   00201E  0E04               	movlw	4
  3146   002020  6E02               	movwf	(memcpy@d1+1)^0,c
  3147   002022  EE20 F002          	lfsr	2,2
  3148   002026  5038               	movf	_pBDTEntryEP0OutCurrent^0,w,c
  3149   002028  26D9               	addwf	fsr2l,f,c
  3150   00202A  5039               	movf	(_pBDTEntryEP0OutCurrent+1)^0,w,c
  3151   00202C  22DA               	addwfc	fsr2h,f,c
  3152   00202E  CFDE F003          	movff	postinc2,memcpy@s1
  3153   002032  CFDD F004          	movff	postdec2,memcpy@s1+1
  3154   002036  0E00               	movlw	0
  3155   002038  6E06               	movwf	(memcpy@n+1)^0,c
  3156   00203A  0E08               	movlw	8
  3157   00203C  6E05               	movwf	memcpy@n^0,c
  3158   00203E  EC42  F012         	call	_memcpy	;wreg free
  3159   002042                     
  3160                           ;usb_device.c: 2413: USBCtrlTrfSetupHandler();
  3161   002042  EC36  F011         	call	_USBCtrlTrfSetupHandler	;wreg free
  3162                           
  3163                           ;usb_device.c: 2414: }
  3164   002046  EF35  F010         	goto	i2l337
  3165   00204A                     i2l3326:
  3166                           
  3167                           ;usb_device.c: 2415: else;usb_device.c: 2416: {;usb_device.c: 2418: USBCtrlTrfOutHandler
      +                          ();
  3168   00204A  EC7E  F011         	call	_USBCtrlTrfOutHandler	;wreg free
  3169   00204E  EF35  F010         	goto	i2l337
  3170   002052                     i2l3328:
  3171                           
  3172                           ;usb_device.c: 2421: else if((USTATcopy.Val & ~0x02) == 0x04)
  3173   002052  504D               	movf	_USTATcopy^0,w,c	;volatile
  3174   002054  0BFD               	andlw	253
  3175   002056  0A04               	xorlw	4
  3176   002058  A4D8               	btfss	status,2,c
  3177   00205A  EF31  F010         	goto	i2u232_41
  3178   00205E  EF33  F010         	goto	i2u232_40
  3179   002062                     i2u232_41:
  3180   002062  EF35  F010         	goto	i2l337
  3181   002066                     i2u232_40:
  3182   002066                     
  3183                           ;usb_device.c: 2422: {;usb_device.c: 2425: USBCtrlTrfInHandler();
  3184   002066  EC6A  F00E         	call	_USBCtrlTrfInHandler	;wreg free
  3185   00206A                     i2l337:
  3186   00206A  0012               	return		;funcret
  3187   00206C                     __end_of_USBCtrlEPService:
  3188                           	callstack 0
  3189                           
  3190 ;; *************** function _memcpy *****************
  3191 ;; Defined at:
  3192 ;;		line 27 in file "B:\Program Files\Microchip\xc8\v2.41\pic\sources\c90\common\memcpy.c"
  3193 ;; Parameters:    Size  Location     Type
  3194 ;;  d1              2    0[COMRAM] PTR void 
  3195 ;;		 -> SetupPkt(8), 
  3196 ;;  s1              2    2[COMRAM] PTR const void 
  3197 ;;		 -> CtrlTrfData(8), RAM(2047), SetupPkt(8), 
  3198 ;;  n               2    4[COMRAM] unsigned int 
  3199 ;; Auto vars:     Size  Location     Type
  3200 ;;  s               2    8[COMRAM] PTR const unsigned char 
  3201 ;;		 -> CtrlTrfData(8), RAM(2047), SetupPkt(8), 
  3202 ;;  d               2    6[COMRAM] PTR unsigned char 
  3203 ;;		 -> SetupPkt(8), 
  3204 ;;  tmp             1   10[COMRAM] unsigned char 
  3205 ;; Return value:  Size  Location     Type
  3206 ;;                  2    0[COMRAM] PTR void 
  3207 ;; Registers used:
  3208 ;;		wreg, fsr2l, fsr2h, status,2, status,0
  3209 ;; Tracked objects:
  3210 ;;		On entry : 0/0
  3211 ;;		On exit  : 0/0
  3212 ;;		Unchanged: 0/0
  3213 ;; Data sizes:     COMRAM   BANK0   BANK1   BANK2   BANK3   BANK4   BANK5   BANK6   BANK7
  3214 ;;      Params:         6       0       0       0       0       0       0       0       0
  3215 ;;      Locals:         5       0       0       0       0       0       0       0       0
  3216 ;;      Temps:          0       0       0       0       0       0       0       0       0
  3217 ;;      Totals:        11       0       0       0       0       0       0       0       0
  3218 ;;Total ram usage:       11 bytes
  3219 ;; Hardware stack levels used: 1
  3220 ;; This function calls:
  3221 ;;		Nothing
  3222 ;; This function is called by:
  3223 ;;		_USBCtrlEPService
  3224 ;; This function uses a non-reentrant model
  3225 ;;
  3226                           
  3227                           	psect	text18
  3228   002484                     __ptext18:
  3229                           	callstack 0
  3230   002484                     _memcpy:
  3231                           	callstack 23
  3232   002484  C003  F009         	movff	memcpy@s1,memcpy@s
  3233   002488  C004  F00A         	movff	memcpy@s1+1,memcpy@s+1
  3234   00248C  C001  F007         	movff	memcpy@d1,memcpy@d
  3235   002490  C002  F008         	movff	memcpy@d1+1,memcpy@d+1
  3236   002494  EF5C  F012         	goto	i2l3172
  3237   002498                     i2l3164:
  3238   002498  C009  FFD9         	movff	memcpy@s,fsr2l
  3239   00249C  C00A  FFDA         	movff	memcpy@s+1,fsr2h
  3240   0024A0  50DF               	movf	indf2,w,c
  3241   0024A2  6E0B               	movwf	memcpy@tmp^0,c
  3242   0024A4  4A09               	infsnz	memcpy@s^0,f,c
  3243   0024A6  2A0A               	incf	(memcpy@s+1)^0,f,c
  3244   0024A8  C007  FFD9         	movff	memcpy@d,fsr2l
  3245   0024AC  C008  FFDA         	movff	memcpy@d+1,fsr2h
  3246   0024B0  C00B  FFDF         	movff	memcpy@tmp,indf2
  3247   0024B4  4A07               	infsnz	memcpy@d^0,f,c
  3248   0024B6  2A08               	incf	(memcpy@d+1)^0,f,c
  3249   0024B8                     i2l3172:
  3250   0024B8  0605               	decf	memcpy@n^0,f,c
  3251   0024BA  A0D8               	btfss	status,0,c
  3252   0024BC  0606               	decf	(memcpy@n+1)^0,f,c
  3253   0024BE  2805               	incf	memcpy@n^0,w,c
  3254   0024C0  E106               	bnz	i2u214_41
  3255   0024C2  2806               	incf	(memcpy@n+1)^0,w,c
  3256   0024C4  A4D8               	btfss	status,2,c
  3257   0024C6  EF67  F012         	goto	i2u214_41
  3258   0024CA  EF69  F012         	goto	i2u214_40
  3259   0024CE                     i2u214_41:
  3260   0024CE  EF4C  F012         	goto	i2l3164
  3261   0024D2                     i2u214_40:
  3262   0024D2  0012               	return		;funcret
  3263   0024D4                     __end_of_memcpy:
  3264                           	callstack 0
  3265                           
  3266 ;; *************** function _USBCtrlTrfSetupHandler *****************
  3267 ;; Defined at:
  3268 ;;		line 2470 in file "usb_device.c"
  3269 ;; Parameters:    Size  Location     Type
  3270 ;;		None
  3271 ;; Auto vars:     Size  Location     Type
  3272 ;;		None
  3273 ;; Return value:  Size  Location     Type
  3274 ;;                  1    wreg      void 
  3275 ;; Registers used:
  3276 ;;		wreg, fsr1l, fsr1h, fsr2l, fsr2h, status,2, status,0, tblptrl, tblptrh, tblptru, prodl, prodh, cstack
  3277 ;; Tracked objects:
  3278 ;;		On entry : 0/0
  3279 ;;		On exit  : 0/0
  3280 ;;		Unchanged: 0/0
  3281 ;; Data sizes:     COMRAM   BANK0   BANK1   BANK2   BANK3   BANK4   BANK5   BANK6   BANK7
  3282 ;;      Params:         0       0       0       0       0       0       0       0       0
  3283 ;;      Locals:         0       0       0       0       0       0       0       0       0
  3284 ;;      Temps:          0       0       0       0       0       0       0       0       0
  3285 ;;      Totals:         0       0       0       0       0       0       0       0       0
  3286 ;;Total ram usage:        0 bytes
  3287 ;; Hardware stack levels used: 1
  3288 ;; Hardware stack levels required when called: 6
  3289 ;; This function calls:
  3290 ;;		_USBCheckStdRequest
  3291 ;;		_USBCtrlEPServiceComplete
  3292 ;;		_USER_USB_CALLBACK_EVENT_HANDLER
  3293 ;; This function is called by:
  3294 ;;		_USBCtrlEPService
  3295 ;; This function uses a non-reentrant model
  3296 ;;
  3297                           
  3298                           	psect	text19
  3299   00226C                     __ptext19:
  3300                           	callstack 0
  3301   00226C                     _USBCtrlTrfSetupHandler:
  3302                           	callstack 17
  3303   00226C                     
  3304                           ;usb_device.c: 2475: shortPacketStatus = 0;
  3305   00226C  0E00               	movlw	0
  3306   00226E  6E49               	movwf	_shortPacketStatus^0,c	;volatile
  3307                           
  3308                           ;usb_device.c: 2476: USBDeferStatusStagePacket = 0;
  3309   002270  0E00               	movlw	0
  3310   002272  6E42               	movwf	_USBDeferStatusStagePacket^0,c	;volatile
  3311                           
  3312                           ;usb_device.c: 2477: USBDeferINDataStagePackets = 0;
  3313   002274  0E00               	movlw	0
  3314   002276  6E3F               	movwf	_USBDeferINDataStagePackets^0,c	;volatile
  3315                           
  3316                           ;usb_device.c: 2478: USBDeferOUTDataStagePackets = 0;
  3317   002278  0E00               	movlw	0
  3318   00227A  6E3E               	movwf	_USBDeferOUTDataStagePackets^0,c	;volatile
  3319                           
  3320                           ;usb_device.c: 2479: BothEP0OutUOWNsSet = 0;
  3321   00227C  0E00               	movlw	0
  3322   00227E  6E44               	movwf	_BothEP0OutUOWNsSet^0,c	;volatile
  3323                           
  3324                           ;usb_device.c: 2480: controlTransferState = 0;
  3325   002280  0E00               	movlw	0
  3326   002282  6E48               	movwf	_controlTransferState^0,c	;volatile
  3327   002284                     
  3328                           ;usb_device.c: 2489: pBDTEntryIn[0]->STAT.Val &= ~(0x80);
  3329   002284  C06E  FFD9         	movff	_pBDTEntryIn,fsr2l
  3330   002288  C06F  FFDA         	movff	_pBDTEntryIn+1,fsr2h
  3331   00228C  0E7F               	movlw	127
  3332   00228E  16DF               	andwf	indf2,f,c
  3333   002290                     
  3334                           ;usb_device.c: 2491: pBDTEntryIn[0] = (volatile BDT_ENTRY*)(((uintptr_t)pBDTEntryIn[0]) 
      +                          ^ 0x0004);
  3335   002290  0E04               	movlw	4
  3336   002292  0100               	movlb	0	; () banked
  3337   002294  196E               	xorwf	_pBDTEntryIn& (0+255),w,b
  3338   002296  6F6E               	movwf	_pBDTEntryIn& (0+255),b
  3339   002298  516F               	movf	(_pBDTEntryIn+1)& (0+255),w,b
  3340   00229A  6F6F               	movwf	(_pBDTEntryIn+1)& (0+255),b
  3341   00229C                     
  3342                           ; BSR set to: 0
  3343                           ;usb_device.c: 2492: pBDTEntryIn[0]->STAT.Val &= ~(0x80);
  3344   00229C  C06E  FFD9         	movff	_pBDTEntryIn,fsr2l
  3345   0022A0  C06F  FFDA         	movff	_pBDTEntryIn+1,fsr2h
  3346   0022A4  0E7F               	movlw	127
  3347   0022A6  16DF               	andwf	indf2,f,c
  3348   0022A8                     
  3349                           ; BSR set to: 0
  3350                           ;usb_device.c: 2493: pBDTEntryIn[0] = (volatile BDT_ENTRY*)(((uintptr_t)pBDTEntryIn[0]) 
      +                          ^ 0x0004);
  3351   0022A8  0E04               	movlw	4
  3352   0022AA  196E               	xorwf	_pBDTEntryIn& (0+255),w,b
  3353   0022AC  6F6E               	movwf	_pBDTEntryIn& (0+255),b
  3354   0022AE  516F               	movf	(_pBDTEntryIn+1)& (0+255),w,b
  3355   0022B0  6F6F               	movwf	(_pBDTEntryIn+1)& (0+255),b
  3356   0022B2                     
  3357                           ; BSR set to: 0
  3358                           ;usb_device.c: 2494: pBDTEntryEP0OutNext->STAT.Val &= ~(0x80);
  3359   0022B2  C036  FFD9         	movff	_pBDTEntryEP0OutNext,fsr2l
  3360   0022B6  C037  FFDA         	movff	_pBDTEntryEP0OutNext+1,fsr2h
  3361   0022BA  0E7F               	movlw	127
  3362   0022BC  16DF               	andwf	indf2,f,c
  3363   0022BE                     
  3364                           ; BSR set to: 0
  3365                           ;usb_device.c: 2496: inPipes[0].info.Val = 0;
  3366   0022BE  0E00               	movlw	0
  3367   0022C0  6F6B               	movwf	(_inPipes+3)& (0+255),b	;volatile
  3368   0022C2                     
  3369                           ; BSR set to: 0
  3370                           ;usb_device.c: 2497: inPipes[0].wCount.Val = 0;
  3371   0022C2  0E00               	movlw	0
  3372   0022C4  6F6D               	movwf	(_inPipes+5)& (0+255),b	;volatile
  3373   0022C6  0E00               	movlw	0
  3374   0022C8  6F6C               	movwf	(_inPipes+4)& (0+255),b	;volatile
  3375   0022CA                     
  3376                           ; BSR set to: 0
  3377                           ;usb_device.c: 2498: outPipes[0].info.Val = 0;
  3378   0022CA  0E00               	movlw	0
  3379   0022CC  6F63               	movwf	(_outPipes+3)& (0+255),b	;volatile
  3380   0022CE                     
  3381                           ; BSR set to: 0
  3382                           ;usb_device.c: 2499: outPipes[0].wCount.Val = 0;
  3383   0022CE  0E00               	movlw	0
  3384   0022D0  6F65               	movwf	(_outPipes+5)& (0+255),b	;volatile
  3385   0022D2  0E00               	movlw	0
  3386   0022D4  6F64               	movwf	(_outPipes+4)& (0+255),b	;volatile
  3387   0022D6                     
  3388                           ; BSR set to: 0
  3389                           ;usb_device.c: 2505: USBCheckStdRequest();
  3390   0022D6  ECD2  F00C         	call	_USBCheckStdRequest	;wreg free
  3391   0022DA                     
  3392                           ;usb_device.c: 2506: USER_USB_CALLBACK_EVENT_HANDLER((USB_EVENT)EVENT_EP0_REQUEST,0,0);
  3393   0022DA  0E00               	movlw	0
  3394   0022DC  6E10               	movwf	(USER_USB_CALLBACK_EVENT_HANDLER@event+1)^0,c
  3395   0022DE  0E03               	movlw	3
  3396   0022E0  6E0F               	movwf	USER_USB_CALLBACK_EVENT_HANDLER@event^0,c
  3397   0022E2  0E00               	movlw	0
  3398   0022E4  6E11               	movwf	USER_USB_CALLBACK_EVENT_HANDLER@pdata^0,c
  3399   0022E6  0E00               	movlw	0
  3400   0022E8  6E12               	movwf	(USER_USB_CALLBACK_EVENT_HANDLER@pdata+1)^0,c
  3401   0022EA  0E00               	movlw	0
  3402   0022EC  6E14               	movwf	(USER_USB_CALLBACK_EVENT_HANDLER@size+1)^0,c
  3403   0022EE  0E00               	movlw	0
  3404   0022F0  6E13               	movwf	USER_USB_CALLBACK_EVENT_HANDLER@size^0,c
  3405   0022F2  ECE8  F010         	call	_USER_USB_CALLBACK_EVENT_HANDLER	;wreg free
  3406   0022F6                     
  3407                           ;usb_device.c: 2519: USBCtrlEPServiceComplete();
  3408   0022F6  ECBE  F009         	call	_USBCtrlEPServiceComplete	;wreg free
  3409   0022FA  0012               	return		;funcret
  3410   0022FC                     __end_of_USBCtrlTrfSetupHandler:
  3411                           	callstack 0
  3412                           
  3413 ;; *************** function _USBCtrlEPServiceComplete *****************
  3414 ;; Defined at:
  3415 ;;		line 1618 in file "usb_device.c"
  3416 ;; Parameters:    Size  Location     Type
  3417 ;;		None
  3418 ;; Auto vars:     Size  Location     Type
  3419 ;;		None
  3420 ;; Return value:  Size  Location     Type
  3421 ;;                  1    wreg      void 
  3422 ;; Registers used:
  3423 ;;		wreg, fsr1l, fsr1h, fsr2l, fsr2h, status,2, status,0, tblptrl, tblptrh, tblptru, cstack
  3424 ;; Tracked objects:
  3425 ;;		On entry : 0/0
  3426 ;;		On exit  : 0/0
  3427 ;;		Unchanged: 0/0
  3428 ;; Data sizes:     COMRAM   BANK0   BANK1   BANK2   BANK3   BANK4   BANK5   BANK6   BANK7
  3429 ;;      Params:         0       0       0       0       0       0       0       0       0
  3430 ;;      Locals:         0       0       0       0       0       0       0       0       0
  3431 ;;      Temps:          0       0       0       0       0       0       0       0       0
  3432 ;;      Totals:         0       0       0       0       0       0       0       0       0
  3433 ;;Total ram usage:        0 bytes
  3434 ;; Hardware stack levels used: 1
  3435 ;; Hardware stack levels required when called: 2
  3436 ;; This function calls:
  3437 ;;		_USBCtrlEPAllowDataStage
  3438 ;;		_USBCtrlEPAllowStatusStage
  3439 ;; This function is called by:
  3440 ;;		_USBCtrlTrfSetupHandler
  3441 ;; This function uses a non-reentrant model
  3442 ;;
  3443                           
  3444                           	psect	text20
  3445   00137C                     __ptext20:
  3446                           	callstack 0
  3447   00137C                     _USBCtrlEPServiceComplete:
  3448                           	callstack 20
  3449   00137C                     
  3450                           ;usb_device.c: 1624: UCONbits.PKTDIS = 0;
  3451   00137C  986D               	bcf	109,4,c	;volatile
  3452                           
  3453                           ;usb_device.c: 1630: if(inPipes[0].info.bits.busy == 0)
  3454   00137E  0100               	movlb	0	; () banked
  3455   001380  BF6B               	btfsc	(_inPipes+3)& (0+255),7,b	;volatile
  3456   001382  EFC5  F009         	goto	i2u201_41
  3457   001386  EFC7  F009         	goto	i2u201_40
  3458   00138A                     i2u201_41:
  3459   00138A  EF0C  F00A         	goto	i2l241
  3460   00138E                     i2u201_40:
  3461   00138E                     
  3462                           ; BSR set to: 0
  3463                           ;usb_device.c: 1631: {;usb_device.c: 1632: if(outPipes[0].info.bits.busy == 1)
  3464   00138E  AF63               	btfss	(_outPipes+3)& (0+255),7,b	;volatile
  3465   001390  EFCC  F009         	goto	i2u202_41
  3466   001394  EFCE  F009         	goto	i2u202_40
  3467   001398                     i2u202_41:
  3468   001398  EFE0  F009         	goto	i2l3042
  3469   00139C                     i2u202_40:
  3470   00139C                     
  3471                           ; BSR set to: 0
  3472                           ;usb_device.c: 1633: {;usb_device.c: 1634: controlTransferState = 2;
  3473   00139C  0E02               	movlw	2
  3474   00139E  6E48               	movwf	_controlTransferState^0,c	;volatile
  3475                           
  3476                           ;usb_device.c: 1645: if(USBDeferOUTDataStagePackets == 0)
  3477   0013A0  503E               	movf	_USBDeferOUTDataStagePackets^0,w,c	;volatile
  3478   0013A2  A4D8               	btfss	status,2,c
  3479   0013A4  EFD6  F009         	goto	i2u203_41
  3480   0013A8  EFD8  F009         	goto	i2u203_40
  3481   0013AC                     i2u203_41:
  3482   0013AC  EFDA  F009         	goto	i2l3038
  3483   0013B0                     i2u203_40:
  3484   0013B0                     
  3485                           ; BSR set to: 0
  3486                           ;usb_device.c: 1646: {;usb_device.c: 1647: USBCtrlEPAllowDataStage();
  3487   0013B0  EC36  F010         	call	_USBCtrlEPAllowDataStage	;wreg free
  3488   0013B4                     i2l3038:
  3489                           
  3490                           ;usb_device.c: 1648: };usb_device.c: 1652: USBStatusStageEnabledFlag2 = 0;
  3491   0013B4  0E00               	movlw	0
  3492   0013B6  6E40               	movwf	_USBStatusStageEnabledFlag2^0,c	;volatile
  3493   0013B8                     
  3494                           ;usb_device.c: 1653: USBStatusStageEnabledFlag1 = 0;
  3495   0013B8  0E00               	movlw	0
  3496   0013BA  6E41               	movwf	_USBStatusStageEnabledFlag1^0,c	;volatile
  3497                           
  3498                           ;usb_device.c: 1654: }
  3499   0013BC  EF5E  F00A         	goto	i2l251
  3500   0013C0                     i2l3042:
  3501                           
  3502                           ; BSR set to: 0
  3503                           ;usb_device.c: 1655: else;usb_device.c: 1656: {;usb_device.c: 1661: pBDTEntryEP0OutNext-
      +                          >CNT = 8;
  3504   0013C0  EE20 F001          	lfsr	2,1
  3505   0013C4  5036               	movf	_pBDTEntryEP0OutNext^0,w,c
  3506   0013C6  26D9               	addwf	fsr2l,f,c
  3507   0013C8  5037               	movf	(_pBDTEntryEP0OutNext+1)^0,w,c
  3508   0013CA  22DA               	addwfc	fsr2h,f,c
  3509   0013CC  0E08               	movlw	8
  3510   0013CE  6EDF               	movwf	indf2,c
  3511                           
  3512                           ;usb_device.c: 1662: pBDTEntryEP0OutNext->ADR = ((uint16_t)(&SetupPkt));
  3513   0013D0  EE20 F002          	lfsr	2,2
  3514   0013D4  5036               	movf	_pBDTEntryEP0OutNext^0,w,c
  3515   0013D6  26D9               	addwf	fsr2l,f,c
  3516   0013D8  5037               	movf	(_pBDTEntryEP0OutNext+1)^0,w,c
  3517   0013DA  22DA               	addwfc	fsr2h,f,c
  3518   0013DC  0E20               	movlw	32
  3519   0013DE  6EDE               	movwf	postinc2,c
  3520   0013E0  0E04               	movlw	4
  3521   0013E2  6EDD               	movwf	postdec2,c
  3522   0013E4                     
  3523                           ; BSR set to: 0
  3524                           ;usb_device.c: 1663: pBDTEntryEP0OutNext->STAT.Val = 0x00|(0x08 & 0x08)|0x04;
  3525   0013E4  C036  FFD9         	movff	_pBDTEntryEP0OutNext,fsr2l
  3526   0013E8  C037  FFDA         	movff	_pBDTEntryEP0OutNext+1,fsr2h
  3527   0013EC  0E0C               	movlw	12
  3528   0013EE  6EDF               	movwf	indf2,c
  3529   0013F0                     
  3530                           ; BSR set to: 0
  3531                           ;usb_device.c: 1664: pBDTEntryEP0OutNext->STAT.Val |= 0x80;
  3532   0013F0  C036  FFD9         	movff	_pBDTEntryEP0OutNext,fsr2l
  3533   0013F4  C037  FFDA         	movff	_pBDTEntryEP0OutNext+1,fsr2h
  3534   0013F8  0E00               	movlw	0
  3535   0013FA  8EDB               	bsf	plusw2,7,c
  3536                           
  3537                           ;usb_device.c: 1665: pBDTEntryIn[0]->STAT.Val = 0x04;
  3538   0013FC  C06E  FFD9         	movff	_pBDTEntryIn,fsr2l
  3539   001400  C06F  FFDA         	movff	_pBDTEntryIn+1,fsr2h
  3540   001404  0E04               	movlw	4
  3541   001406  6EDF               	movwf	indf2,c
  3542   001408                     
  3543                           ; BSR set to: 0
  3544                           ;usb_device.c: 1666: pBDTEntryIn[0]->STAT.Val |= 0x80;
  3545   001408  C06E  FFD9         	movff	_pBDTEntryIn,fsr2l
  3546   00140C  C06F  FFDA         	movff	_pBDTEntryIn+1,fsr2h
  3547   001410  0E00               	movlw	0
  3548   001412  8EDB               	bsf	plusw2,7,c
  3549   001414  EF5E  F00A         	goto	i2l251
  3550   001418                     i2l241:
  3551                           
  3552                           ; BSR set to: 0
  3553                           ;usb_device.c: 1669: else;usb_device.c: 1670: {;usb_device.c: 1671: if(SetupPkt.DataDir 
      +                          == (0x80>>7))
  3554   001418  0104               	movlb	4	; () banked
  3555   00141A  AF20               	btfss	32,7,b	;volatile
  3556   00141C  EF12  F00A         	goto	i2u204_41
  3557   001420  EF14  F00A         	goto	i2u204_40
  3558   001424                     i2u204_41:
  3559   001424  EF30  F00A         	goto	i2l3062
  3560   001428                     i2u204_40:
  3561   001428                     
  3562                           ; BSR set to: 4
  3563                           ;usb_device.c: 1672: {;usb_device.c: 1673: controlTransferState = 1;
  3564   001428  0E01               	movlw	1
  3565   00142A  6E48               	movwf	_controlTransferState^0,c	;volatile
  3566                           
  3567                           ;usb_device.c: 1687: if(USBDeferINDataStagePackets == 0)
  3568   00142C  503F               	movf	_USBDeferINDataStagePackets^0,w,c	;volatile
  3569   00142E  A4D8               	btfss	status,2,c
  3570   001430  EF1C  F00A         	goto	i2u205_41
  3571   001434  EF1E  F00A         	goto	i2u205_40
  3572   001438                     i2u205_41:
  3573   001438  EF20  F00A         	goto	i2l3054
  3574   00143C                     i2u205_40:
  3575   00143C                     
  3576                           ; BSR set to: 4
  3577                           ;usb_device.c: 1688: {;usb_device.c: 1689: USBCtrlEPAllowDataStage();
  3578   00143C  EC36  F010         	call	_USBCtrlEPAllowDataStage	;wreg free
  3579   001440                     i2l3054:
  3580                           
  3581                           ;usb_device.c: 1690: };usb_device.c: 1712: USBStatusStageEnabledFlag2 = 0;
  3582   001440  0E00               	movlw	0
  3583   001442  6E40               	movwf	_USBStatusStageEnabledFlag2^0,c	;volatile
  3584   001444                     
  3585                           ;usb_device.c: 1713: USBStatusStageEnabledFlag1 = 0;
  3586   001444  0E00               	movlw	0
  3587   001446  6E41               	movwf	_USBStatusStageEnabledFlag1^0,c	;volatile
  3588   001448                     
  3589                           ;usb_device.c: 1714: if(USBDeferStatusStagePacket == 0)
  3590   001448  5042               	movf	_USBDeferStatusStagePacket^0,w,c	;volatile
  3591   00144A  A4D8               	btfss	status,2,c
  3592   00144C  EF2A  F00A         	goto	i2u206_41
  3593   001450  EF2C  F00A         	goto	i2u206_40
  3594   001454                     i2u206_41:
  3595   001454  EF5E  F00A         	goto	i2l251
  3596   001458                     i2u206_40:
  3597   001458                     i2l3060:
  3598                           
  3599                           ;usb_device.c: 1715: {;usb_device.c: 1716: USBCtrlEPAllowStatusStage();
  3600   001458  ECEF  F00E         	call	_USBCtrlEPAllowStatusStage	;wreg free
  3601   00145C  EF5E  F00A         	goto	i2l251
  3602   001460                     i2l3062:
  3603                           
  3604                           ; BSR set to: 4
  3605                           ;usb_device.c: 1719: else;usb_device.c: 1720: {;usb_device.c: 1731: controlTransferState
      +                           = 2;
  3606   001460  0E02               	movlw	2
  3607   001462  6E48               	movwf	_controlTransferState^0,c	;volatile
  3608   001464                     
  3609                           ; BSR set to: 4
  3610                           ;usb_device.c: 1734: pBDTEntryEP0OutNext->CNT = 8;
  3611   001464  EE20 F001          	lfsr	2,1
  3612   001468  5036               	movf	_pBDTEntryEP0OutNext^0,w,c
  3613   00146A  26D9               	addwf	fsr2l,f,c
  3614   00146C  5037               	movf	(_pBDTEntryEP0OutNext+1)^0,w,c
  3615   00146E  22DA               	addwfc	fsr2h,f,c
  3616   001470  0E08               	movlw	8
  3617   001472  6EDF               	movwf	indf2,c
  3618   001474                     
  3619                           ; BSR set to: 4
  3620                           ;usb_device.c: 1735: pBDTEntryEP0OutNext->ADR = ((uint16_t)(&SetupPkt));
  3621   001474  EE20 F002          	lfsr	2,2
  3622   001478  5036               	movf	_pBDTEntryEP0OutNext^0,w,c
  3623   00147A  26D9               	addwf	fsr2l,f,c
  3624   00147C  5037               	movf	(_pBDTEntryEP0OutNext+1)^0,w,c
  3625   00147E  22DA               	addwfc	fsr2h,f,c
  3626   001480  0E20               	movlw	32
  3627   001482  6EDE               	movwf	postinc2,c
  3628   001484  0E04               	movlw	4
  3629   001486  6EDD               	movwf	postdec2,c
  3630   001488                     
  3631                           ; BSR set to: 4
  3632                           ;usb_device.c: 1736: pBDTEntryEP0OutNext->STAT.Val = 0x04;
  3633   001488  C036  FFD9         	movff	_pBDTEntryEP0OutNext,fsr2l
  3634   00148C  C037  FFDA         	movff	_pBDTEntryEP0OutNext+1,fsr2h
  3635   001490  0E04               	movlw	4
  3636   001492  6EDF               	movwf	indf2,c
  3637   001494                     
  3638                           ; BSR set to: 4
  3639                           ;usb_device.c: 1737: pBDTEntryEP0OutNext->STAT.Val |= 0x80;
  3640   001494  C036  FFD9         	movff	_pBDTEntryEP0OutNext,fsr2l
  3641   001498  C037  FFDA         	movff	_pBDTEntryEP0OutNext+1,fsr2h
  3642   00149C  0E00               	movlw	0
  3643   00149E  8EDB               	bsf	plusw2,7,c
  3644   0014A0                     
  3645                           ; BSR set to: 4
  3646                           ;usb_device.c: 1740: USBStatusStageEnabledFlag2 = 0;
  3647   0014A0  0E00               	movlw	0
  3648   0014A2  6E40               	movwf	_USBStatusStageEnabledFlag2^0,c	;volatile
  3649   0014A4                     
  3650                           ; BSR set to: 4
  3651                           ;usb_device.c: 1741: USBStatusStageEnabledFlag1 = 0;
  3652   0014A4  0E00               	movlw	0
  3653   0014A6  6E41               	movwf	_USBStatusStageEnabledFlag1^0,c	;volatile
  3654   0014A8                     
  3655                           ; BSR set to: 4
  3656                           ;usb_device.c: 1742: if(USBDeferStatusStagePacket == 0)
  3657   0014A8  5042               	movf	_USBDeferStatusStagePacket^0,w,c	;volatile
  3658   0014AA  A4D8               	btfss	status,2,c
  3659   0014AC  EF5A  F00A         	goto	i2u207_41
  3660   0014B0  EF5C  F00A         	goto	i2u207_40
  3661   0014B4                     i2u207_41:
  3662   0014B4  EF5E  F00A         	goto	i2l251
  3663   0014B8                     i2u207_40:
  3664   0014B8  EF2C  F00A         	goto	i2l3060
  3665   0014BC                     i2l251:
  3666   0014BC  0012               	return		;funcret
  3667   0014BE                     __end_of_USBCtrlEPServiceComplete:
  3668                           	callstack 0
  3669                           
  3670 ;; *************** function _USBCtrlEPAllowDataStage *****************
  3671 ;; Defined at:
  3672 ;;		line 1490 in file "usb_device.c"
  3673 ;; Parameters:    Size  Location     Type
  3674 ;;		None
  3675 ;; Auto vars:     Size  Location     Type
  3676 ;;		None
  3677 ;; Return value:  Size  Location     Type
  3678 ;;                  1    wreg      void 
  3679 ;; Registers used:
  3680 ;;		wreg, fsr1l, fsr1h, fsr2l, fsr2h, status,2, status,0, tblptrl, tblptrh, tblptru, cstack
  3681 ;; Tracked objects:
  3682 ;;		On entry : 0/0
  3683 ;;		On exit  : 0/0
  3684 ;;		Unchanged: 0/0
  3685 ;; Data sizes:     COMRAM   BANK0   BANK1   BANK2   BANK3   BANK4   BANK5   BANK6   BANK7
  3686 ;;      Params:         0       0       0       0       0       0       0       0       0
  3687 ;;      Locals:         0       0       0       0       0       0       0       0       0
  3688 ;;      Temps:          0       0       0       0       0       0       0       0       0
  3689 ;;      Totals:         0       0       0       0       0       0       0       0       0
  3690 ;;Total ram usage:        0 bytes
  3691 ;; Hardware stack levels used: 1
  3692 ;; Hardware stack levels required when called: 1
  3693 ;; This function calls:
  3694 ;;		_USBCtrlTrfTxService
  3695 ;; This function is called by:
  3696 ;;		_USBCtrlEPServiceComplete
  3697 ;; This function uses a non-reentrant model
  3698 ;;
  3699                           
  3700                           	psect	text21
  3701   00206C                     __ptext21:
  3702                           	callstack 0
  3703   00206C                     _USBCtrlEPAllowDataStage:
  3704                           	callstack 20
  3705   00206C                     
  3706                           ;usb_device.c: 1492: USBDeferINDataStagePackets = 0;
  3707   00206C  0E00               	movlw	0
  3708   00206E  6E3F               	movwf	_USBDeferINDataStagePackets^0,c	;volatile
  3709                           
  3710                           ;usb_device.c: 1493: USBDeferOUTDataStagePackets = 0;
  3711   002070  0E00               	movlw	0
  3712   002072  6E3E               	movwf	_USBDeferOUTDataStagePackets^0,c	;volatile
  3713   002074                     
  3714                           ;usb_device.c: 1495: if(controlTransferState == 2)
  3715   002074  0E02               	movlw	2
  3716   002076  1848               	xorwf	_controlTransferState^0,w,c	;volatile
  3717   002078  A4D8               	btfss	status,2,c
  3718   00207A  EF41  F010         	goto	i2u167_41
  3719   00207E  EF43  F010         	goto	i2u167_40
  3720   002082                     i2u167_41:
  3721   002082  EF63  F010         	goto	i2l2832
  3722   002086                     i2u167_40:
  3723   002086                     
  3724                           ;usb_device.c: 1496: {;usb_device.c: 1498: pBDTEntryEP0OutNext->CNT = 8;
  3725   002086  EE20 F001          	lfsr	2,1
  3726   00208A  5036               	movf	_pBDTEntryEP0OutNext^0,w,c
  3727   00208C  26D9               	addwf	fsr2l,f,c
  3728   00208E  5037               	movf	(_pBDTEntryEP0OutNext+1)^0,w,c
  3729   002090  22DA               	addwfc	fsr2h,f,c
  3730   002092  0E08               	movlw	8
  3731   002094  6EDF               	movwf	indf2,c
  3732                           
  3733                           ;usb_device.c: 1499: pBDTEntryEP0OutNext->ADR = ((uint16_t)(&CtrlTrfData));
  3734   002096  EE20 F002          	lfsr	2,2
  3735   00209A  5036               	movf	_pBDTEntryEP0OutNext^0,w,c
  3736   00209C  26D9               	addwf	fsr2l,f,c
  3737   00209E  5037               	movf	(_pBDTEntryEP0OutNext+1)^0,w,c
  3738   0020A0  22DA               	addwfc	fsr2h,f,c
  3739   0020A2  0E28               	movlw	40
  3740   0020A4  6EDE               	movwf	postinc2,c
  3741   0020A6  0E04               	movlw	4
  3742   0020A8  6EDD               	movwf	postdec2,c
  3743   0020AA                     
  3744                           ;usb_device.c: 1500: pBDTEntryEP0OutNext->STAT.Val = 0x40|(0x08 & 0x08);
  3745   0020AA  C036  FFD9         	movff	_pBDTEntryEP0OutNext,fsr2l
  3746   0020AE  C037  FFDA         	movff	_pBDTEntryEP0OutNext+1,fsr2h
  3747   0020B2  0E48               	movlw	72
  3748   0020B4  6EDF               	movwf	indf2,c
  3749   0020B6                     
  3750                           ;usb_device.c: 1501: pBDTEntryEP0OutNext->STAT.Val |= 0x80;
  3751   0020B6  C036  FFD9         	movff	_pBDTEntryEP0OutNext,fsr2l
  3752   0020BA  C037  FFDA         	movff	_pBDTEntryEP0OutNext+1,fsr2h
  3753   0020BE  0E00               	movlw	0
  3754   0020C0  8EDB               	bsf	plusw2,7,c
  3755                           
  3756                           ;usb_device.c: 1502: }
  3757   0020C2  EF8F  F010         	goto	i2l233
  3758   0020C6                     i2l2832:
  3759                           
  3760                           ;usb_device.c: 1503: else;usb_device.c: 1504: {;usb_device.c: 1507: if(SetupPkt.wLength 
      +                          < inPipes[0].wCount.Val)
  3761   0020C6  0100               	movlb	0	; () banked
  3762   0020C8  516C               	movf	(_inPipes+4)& (0+255),w,b	;volatile
  3763   0020CA  0104               	movlb	4	; () banked
  3764   0020CC  5D26               	subwf	38,w,b	;volatile
  3765   0020CE  0100               	movlb	0	; () banked
  3766   0020D0  516D               	movf	(_inPipes+5)& (0+255),w,b	;volatile
  3767   0020D2  0104               	movlb	4	; () banked
  3768   0020D4  5927               	subwfb	39,w,b	;volatile
  3769   0020D6  B0D8               	btfsc	status,0,c
  3770   0020D8  EF70  F010         	goto	i2u168_41
  3771   0020DC  EF72  F010         	goto	i2u168_40
  3772   0020E0                     i2u168_41:
  3773   0020E0  EF76  F010         	goto	i2l2836
  3774   0020E4                     i2u168_40:
  3775   0020E4                     
  3776                           ; BSR set to: 4
  3777                           ;usb_device.c: 1508: {;usb_device.c: 1509: inPipes[0].wCount.Val = SetupPkt.wLength;
  3778   0020E4  C426 F06C          	movff	1062,_inPipes+4	;volatile
  3779   0020E8  C427 F06D          	movff	1063,_inPipes+5	;volatile
  3780   0020EC                     i2l2836:
  3781                           
  3782                           ; BSR set to: 4
  3783                           ;usb_device.c: 1510: };usb_device.c: 1511: USBCtrlTrfTxService();
  3784   0020EC  EC5B  F00D         	call	_USBCtrlTrfTxService	;wreg free
  3785   0020F0                     
  3786                           ;usb_device.c: 1516: pBDTEntryIn[0]->ADR = ((uint16_t)(&CtrlTrfData));
  3787   0020F0  0100               	movlb	0	; () banked
  3788   0020F2  EE20 F002          	lfsr	2,2
  3789   0020F6  516E               	movf	_pBDTEntryIn& (0+255),w,b
  3790   0020F8  26D9               	addwf	fsr2l,f,c
  3791   0020FA  516F               	movf	(_pBDTEntryIn+1)& (0+255),w,b
  3792   0020FC  22DA               	addwfc	fsr2h,f,c
  3793   0020FE  0E28               	movlw	40
  3794   002100  6EDE               	movwf	postinc2,c
  3795   002102  0E04               	movlw	4
  3796   002104  6EDD               	movwf	postdec2,c
  3797   002106                     
  3798                           ; BSR set to: 0
  3799                           ;usb_device.c: 1517: pBDTEntryIn[0]->STAT.Val = 0x40|(0x08 & 0x08);
  3800   002106  C06E  FFD9         	movff	_pBDTEntryIn,fsr2l
  3801   00210A  C06F  FFDA         	movff	_pBDTEntryIn+1,fsr2h
  3802   00210E  0E48               	movlw	72
  3803   002110  6EDF               	movwf	indf2,c
  3804   002112                     
  3805                           ; BSR set to: 0
  3806                           ;usb_device.c: 1518: pBDTEntryIn[0]->STAT.Val |= 0x80;
  3807   002112  C06E  FFD9         	movff	_pBDTEntryIn,fsr2l
  3808   002116  C06F  FFDA         	movff	_pBDTEntryIn+1,fsr2h
  3809   00211A  0E00               	movlw	0
  3810   00211C  8EDB               	bsf	plusw2,7,c
  3811   00211E                     i2l233:
  3812   00211E  0012               	return		;funcret
  3813   002120                     __end_of_USBCtrlEPAllowDataStage:
  3814                           	callstack 0
  3815                           
  3816 ;; *************** function _USBCheckStdRequest *****************
  3817 ;; Defined at:
  3818 ;;		line 2691 in file "usb_device.c"
  3819 ;; Parameters:    Size  Location     Type
  3820 ;;		None
  3821 ;; Auto vars:     Size  Location     Type
  3822 ;;		None
  3823 ;; Return value:  Size  Location     Type
  3824 ;;                  1    wreg      void 
  3825 ;; Registers used:
  3826 ;;		wreg, fsr1l, fsr1h, fsr2l, fsr2h, status,2, status,0, tblptrl, tblptrh, tblptru, prodl, prodh, cstack
  3827 ;; Tracked objects:
  3828 ;;		On entry : 0/0
  3829 ;;		On exit  : 0/0
  3830 ;;		Unchanged: 0/0
  3831 ;; Data sizes:     COMRAM   BANK0   BANK1   BANK2   BANK3   BANK4   BANK5   BANK6   BANK7
  3832 ;;      Params:         0       0       0       0       0       0       0       0       0
  3833 ;;      Locals:         0       0       0       0       0       0       0       0       0
  3834 ;;      Temps:          0       0       0       0       0       0       0       0       0
  3835 ;;      Totals:         0       0       0       0       0       0       0       0       0
  3836 ;;Total ram usage:        0 bytes
  3837 ;; Hardware stack levels used: 1
  3838 ;; Hardware stack levels required when called: 5
  3839 ;; This function calls:
  3840 ;;		_USBStdFeatureReqHandler
  3841 ;;		_USBStdGetDscHandler
  3842 ;;		_USBStdGetStatusHandler
  3843 ;;		_USBStdSetCfgHandler
  3844 ;;		_USER_USB_CALLBACK_EVENT_HANDLER
  3845 ;; This function is called by:
  3846 ;;		_USBCtrlTrfSetupHandler
  3847 ;; This function uses a non-reentrant model
  3848 ;;
  3849                           
  3850                           	psect	text22
  3851   0019A4                     __ptext22:
  3852                           	callstack 0
  3853   0019A4                     _USBCheckStdRequest:
  3854                           	callstack 17
  3855   0019A4                     
  3856                           ;usb_device.c: 2693: if(SetupPkt.RequestType != (0x00>>5)) return;
  3857   0019A4  0104               	movlb	4	; () banked
  3858   0019A6  3920               	swapf	32,w,b	;volatile
  3859   0019A8  32E8               	rrcf	wreg,f,c
  3860   0019AA  0B03               	andlw	3
  3861   0019AC  0900               	iorlw	0
  3862   0019AE  B4D8               	btfsc	status,2,c
  3863   0019B0  EFDC  F00C         	goto	i2u213_41
  3864   0019B4  EFDE  F00C         	goto	i2u213_40
  3865   0019B8                     i2u213_41:
  3866   0019B8  EF2B  F00D         	goto	i2l3160
  3867   0019BC                     i2u213_40:
  3868   0019BC  EF5A  F00D         	goto	i2l365
  3869   0019C0                     i2l367:
  3870                           
  3871                           ; BSR set to: 4
  3872                           ;usb_device.c: 2698: inPipes[0].info.bits.busy = 1;
  3873   0019C0  0100               	movlb	0	; () banked
  3874   0019C2  8F6B               	bsf	(_inPipes+3)& (0+255),7,b	;volatile
  3875   0019C4                     
  3876                           ; BSR set to: 0
  3877                           ;usb_device.c: 2699: USBDeviceState = ADR_PENDING_STATE;
  3878   0019C4  0E08               	movlw	8
  3879   0019C6  6E4A               	movwf	_USBDeviceState^0,c	;volatile
  3880                           
  3881                           ;usb_device.c: 2701: break;
  3882   0019C8  EF5A  F00D         	goto	i2l365
  3883   0019CC                     i2l3130:
  3884                           
  3885                           ; BSR set to: 4
  3886                           ;usb_device.c: 2703: USBStdGetDscHandler();
  3887   0019CC  EC26  F007         	call	_USBStdGetDscHandler	;wreg free
  3888                           
  3889                           ;usb_device.c: 2704: break;
  3890   0019D0  EF5A  F00D         	goto	i2l365
  3891   0019D4                     i2l3132:
  3892                           
  3893                           ; BSR set to: 4
  3894                           ;usb_device.c: 2706: USBStdSetCfgHandler();
  3895   0019D4  EC67  F00F         	call	_USBStdSetCfgHandler	;wreg free
  3896                           
  3897                           ;usb_device.c: 2707: break;
  3898   0019D8  EF5A  F00D         	goto	i2l365
  3899   0019DC                     i2l3134:
  3900                           
  3901                           ; BSR set to: 4
  3902                           ;usb_device.c: 2709: inPipes[0].pSrc.bRam = (uint8_t*)&USBActiveConfiguration;
  3903   0019DC  0E4F               	movlw	low _USBActiveConfiguration
  3904   0019DE  0100               	movlb	0	; () banked
  3905   0019E0  6F68               	movwf	_inPipes& (0+255),b	;volatile
  3906   0019E2  0E00               	movlw	high _USBActiveConfiguration
  3907   0019E4  6F69               	movwf	(_inPipes+1)& (0+255),b	;volatile
  3908   0019E6                     
  3909                           ; BSR set to: 0
  3910                           ;usb_device.c: 2710: inPipes[0].info.bits.ctrl_trf_mem = 0x01;
  3911   0019E6  816B               	bsf	(_inPipes+3)& (0+255),0,b	;volatile
  3912   0019E8                     
  3913                           ; BSR set to: 0
  3914                           ;usb_device.c: 2711: inPipes[0].wCount.v[0] = 1;
  3915   0019E8  0E01               	movlw	1
  3916   0019EA  6F6C               	movwf	(_inPipes+4)& (0+255),b	;volatile
  3917   0019EC                     
  3918                           ; BSR set to: 0
  3919                           ;usb_device.c: 2712: inPipes[0].info.bits.busy = 1;
  3920   0019EC  8F6B               	bsf	(_inPipes+3)& (0+255),7,b	;volatile
  3921                           
  3922                           ;usb_device.c: 2713: break;
  3923   0019EE  EF5A  F00D         	goto	i2l365
  3924   0019F2                     i2l3142:
  3925                           
  3926                           ; BSR set to: 4
  3927                           ;usb_device.c: 2715: USBStdGetStatusHandler();
  3928   0019F2  ECE3  F00D         	call	_USBStdGetStatusHandler	;wreg free
  3929                           
  3930                           ;usb_device.c: 2716: break;
  3931   0019F6  EF5A  F00D         	goto	i2l365
  3932   0019FA                     i2l3144:
  3933                           
  3934                           ; BSR set to: 4
  3935                           ;usb_device.c: 2718: case 3:;usb_device.c: 2719: USBStdFeatureReqHandler();
  3936   0019FA  EC64  F004         	call	_USBStdFeatureReqHandler	;wreg free
  3937                           
  3938                           ;usb_device.c: 2720: break;
  3939   0019FE  EF5A  F00D         	goto	i2l365
  3940   001A02                     i2l3146:
  3941                           
  3942                           ; BSR set to: 4
  3943                           ;usb_device.c: 2722: inPipes[0].pSrc.bRam = (uint8_t*)&USBAlternateInterface[SetupPkt.bI
      +                          ntfID];
  3944   001A02  0E4E               	movlw	low _USBAlternateInterface
  3945   001A04  2524               	addwf	36,w,b	;volatile
  3946   001A06  0100               	movlb	0	; () banked
  3947   001A08  6F68               	movwf	_inPipes& (0+255),b	;volatile
  3948   001A0A  6B69               	clrf	(_inPipes+1)& (0+255),b	;volatile
  3949   001A0C  0E00               	movlw	high _USBAlternateInterface
  3950   001A0E  2369               	addwfc	(_inPipes+1)& (0+255),f,b	;volatile
  3951   001A10                     
  3952                           ; BSR set to: 0
  3953                           ;usb_device.c: 2723: inPipes[0].info.bits.ctrl_trf_mem = 0x01;
  3954   001A10  816B               	bsf	(_inPipes+3)& (0+255),0,b	;volatile
  3955   001A12                     
  3956                           ; BSR set to: 0
  3957                           ;usb_device.c: 2724: inPipes[0].wCount.v[0] = 1;
  3958   001A12  0E01               	movlw	1
  3959   001A14  6F6C               	movwf	(_inPipes+4)& (0+255),b	;volatile
  3960   001A16                     
  3961                           ; BSR set to: 0
  3962                           ;usb_device.c: 2725: inPipes[0].info.bits.busy = 1;
  3963   001A16  8F6B               	bsf	(_inPipes+3)& (0+255),7,b	;volatile
  3964                           
  3965                           ;usb_device.c: 2726: break;
  3966   001A18  EF5A  F00D         	goto	i2l365
  3967   001A1C                     i2l376:
  3968                           
  3969                           ; BSR set to: 4
  3970                           ;usb_device.c: 2728: inPipes[0].info.bits.busy = 1;
  3971   001A1C  0100               	movlb	0	; () banked
  3972   001A1E  8F6B               	bsf	(_inPipes+3)& (0+255),7,b	;volatile
  3973   001A20                     
  3974                           ; BSR set to: 0
  3975                           ;usb_device.c: 2729: USBAlternateInterface[SetupPkt.bIntfID] = SetupPkt.bAltID;
  3976   001A20  0E4E               	movlw	low _USBAlternateInterface
  3977   001A22  0104               	movlb	4	; () banked
  3978   001A24  2524               	addwf	36,w,b	;volatile
  3979   001A26  6ED9               	movwf	fsr2l,c
  3980   001A28  6ADA               	clrf	fsr2h,c
  3981   001A2A  0E00               	movlw	high _USBAlternateInterface
  3982   001A2C  22DA               	addwfc	fsr2h,f,c
  3983   001A2E  C422 FFDF          	movff	1058,indf2	;volatile
  3984                           
  3985                           ;usb_device.c: 2730: break;
  3986   001A32  EF5A  F00D         	goto	i2l365
  3987   001A36                     i2l3156:
  3988                           
  3989                           ; BSR set to: 4
  3990                           ;usb_device.c: 2732: USER_USB_CALLBACK_EVENT_HANDLER((USB_EVENT)EVENT_SET_DESCRIPTOR,0,0
      +                          );
  3991   001A36  0E00               	movlw	0
  3992   001A38  6E10               	movwf	(USER_USB_CALLBACK_EVENT_HANDLER@event+1)^0,c
  3993   001A3A  0E02               	movlw	2
  3994   001A3C  6E0F               	movwf	USER_USB_CALLBACK_EVENT_HANDLER@event^0,c
  3995   001A3E  0E00               	movlw	0
  3996   001A40  6E11               	movwf	USER_USB_CALLBACK_EVENT_HANDLER@pdata^0,c
  3997   001A42  0E00               	movlw	0
  3998   001A44  6E12               	movwf	(USER_USB_CALLBACK_EVENT_HANDLER@pdata+1)^0,c
  3999   001A46  0E00               	movlw	0
  4000   001A48  6E14               	movwf	(USER_USB_CALLBACK_EVENT_HANDLER@size+1)^0,c
  4001   001A4A  0E00               	movlw	0
  4002   001A4C  6E13               	movwf	USER_USB_CALLBACK_EVENT_HANDLER@size^0,c
  4003   001A4E  ECE8  F010         	call	_USER_USB_CALLBACK_EVENT_HANDLER	;wreg free
  4004                           
  4005                           ;usb_device.c: 2733: break;
  4006   001A52  EF5A  F00D         	goto	i2l365
  4007   001A56                     i2l3160:
  4008                           
  4009                           ; BSR set to: 4
  4010   001A56  5121               	movf	33,w,b	;volatile
  4011                           
  4012                           ; Switch size 1, requested type "simple"
  4013                           ; Number of cases is 11, Range of values is 0 to 12
  4014                           ; switch strategies available:
  4015                           ; Name         Instructions Cycles
  4016                           ; simple_byte           34    18 (average)
  4017                           ;	Chosen strategy is simple_byte
  4018   001A58  0A00               	xorlw	0	; case 0
  4019   001A5A  B4D8               	btfsc	status,2,c
  4020   001A5C  EFF9  F00C         	goto	i2l3142
  4021   001A60  0A01               	xorlw	1	; case 1
  4022   001A62  B4D8               	btfsc	status,2,c
  4023   001A64  EFFD  F00C         	goto	i2l3144
  4024   001A68  0A02               	xorlw	2	; case 3
  4025   001A6A  B4D8               	btfsc	status,2,c
  4026   001A6C  EFFD  F00C         	goto	i2l3144
  4027   001A70  0A06               	xorlw	6	; case 5
  4028   001A72  B4D8               	btfsc	status,2,c
  4029   001A74  EFE0  F00C         	goto	i2l367
  4030   001A78  0A03               	xorlw	3	; case 6
  4031   001A7A  B4D8               	btfsc	status,2,c
  4032   001A7C  EFE6  F00C         	goto	i2l3130
  4033   001A80  0A01               	xorlw	1	; case 7
  4034   001A82  B4D8               	btfsc	status,2,c
  4035   001A84  EF1B  F00D         	goto	i2l3156
  4036   001A88  0A0F               	xorlw	15	; case 8
  4037   001A8A  B4D8               	btfsc	status,2,c
  4038   001A8C  EFEE  F00C         	goto	i2l3134
  4039   001A90  0A01               	xorlw	1	; case 9
  4040   001A92  B4D8               	btfsc	status,2,c
  4041   001A94  EFEA  F00C         	goto	i2l3132
  4042   001A98  0A03               	xorlw	3	; case 10
  4043   001A9A  B4D8               	btfsc	status,2,c
  4044   001A9C  EF01  F00D         	goto	i2l3146
  4045   001AA0  0A01               	xorlw	1	; case 11
  4046   001AA2  B4D8               	btfsc	status,2,c
  4047   001AA4  EF0E  F00D         	goto	i2l376
  4048   001AA8  0A07               	xorlw	7	; case 12
  4049   001AAA  B4D8               	btfsc	status,2,c
  4050   001AAC  EF5A  F00D         	goto	i2l365
  4051   001AB0  EF5A  F00D         	goto	i2l365
  4052   001AB4                     i2l365:
  4053   001AB4  0012               	return		;funcret
  4054   001AB6                     __end_of_USBCheckStdRequest:
  4055                           	callstack 0
  4056                           
  4057 ;; *************** function _USBStdSetCfgHandler *****************
  4058 ;; Defined at:
  4059 ;;		line 1970 in file "usb_device.c"
  4060 ;; Parameters:    Size  Location     Type
  4061 ;;		None
  4062 ;; Auto vars:     Size  Location     Type
  4063 ;;  i               1   22[COMRAM] unsigned char 
  4064 ;; Return value:  Size  Location     Type
  4065 ;;                  1    wreg      void 
  4066 ;; Registers used:
  4067 ;;		wreg, fsr2l, fsr2h, status,2, status,0, prodl, prodh, cstack
  4068 ;; Tracked objects:
  4069 ;;		On entry : 0/0
  4070 ;;		On exit  : 0/0
  4071 ;;		Unchanged: 0/0
  4072 ;; Data sizes:     COMRAM   BANK0   BANK1   BANK2   BANK3   BANK4   BANK5   BANK6   BANK7
  4073 ;;      Params:         0       0       0       0       0       0       0       0       0
  4074 ;;      Locals:         1       0       0       0       0       0       0       0       0
  4075 ;;      Temps:          0       0       0       0       0       0       0       0       0
  4076 ;;      Totals:         1       0       0       0       0       0       0       0       0
  4077 ;;Total ram usage:        1 bytes
  4078 ;; Hardware stack levels used: 1
  4079 ;; Hardware stack levels required when called: 4
  4080 ;; This function calls:
  4081 ;;		_USER_USB_CALLBACK_EVENT_HANDLER
  4082 ;;		i2_memset
  4083 ;; This function is called by:
  4084 ;;		_USBCheckStdRequest
  4085 ;; This function uses a non-reentrant model
  4086 ;;
  4087                           
  4088                           	psect	text23
  4089   001ECE                     __ptext23:
  4090                           	callstack 0
  4091   001ECE                     _USBStdSetCfgHandler:
  4092                           	callstack 17
  4093   001ECE                     
  4094                           ;usb_device.c: 1972: uint8_t i;;usb_device.c: 1975: inPipes[0].info.bits.busy = 1;
  4095   001ECE  0100               	movlb	0	; () banked
  4096   001ED0  8F6B               	bsf	(_inPipes+3)& (0+255),7,b	;volatile
  4097   001ED2                     
  4098                           ; BSR set to: 0
  4099                           ;usb_device.c: 1978: memset((void*)&UEP1,0x00,(1));;
  4100   001ED2  0E71               	movlw	113
  4101   001ED4  6E01               	movwf	i2memset@p1^0,c
  4102   001ED6  0E0F               	movlw	15
  4103   001ED8  6E02               	movwf	(i2memset@p1+1)^0,c
  4104   001EDA  0E00               	movlw	0
  4105   001EDC  6E04               	movwf	(i2memset@c+1)^0,c
  4106   001EDE  0E00               	movlw	0
  4107   001EE0  6E03               	movwf	i2memset@c^0,c
  4108   001EE2  0E00               	movlw	0
  4109   001EE4  6E06               	movwf	(i2memset@n+1)^0,c
  4110   001EE6  0E01               	movlw	1
  4111   001EE8  6E05               	movwf	i2memset@n^0,c
  4112   001EEA  ECEF  F012         	call	i2_memset	;wreg free
  4113                           
  4114                           ;usb_device.c: 1981: memset((void*)&BDT[0], 0x00, sizeof(BDT));
  4115   001EEE  0E00               	movlw	0
  4116   001EF0  6E01               	movwf	i2memset@p1^0,c
  4117   001EF2  0E04               	movlw	4
  4118   001EF4  6E02               	movwf	(i2memset@p1+1)^0,c
  4119   001EF6  0E00               	movlw	0
  4120   001EF8  6E04               	movwf	(i2memset@c+1)^0,c
  4121   001EFA  0E00               	movlw	0
  4122   001EFC  6E03               	movwf	i2memset@c^0,c
  4123   001EFE  0E00               	movlw	0
  4124   001F00  6E06               	movwf	(i2memset@n+1)^0,c
  4125   001F02  0E20               	movlw	32
  4126   001F04  6E05               	movwf	i2memset@n^0,c
  4127   001F06  ECEF  F012         	call	i2_memset	;wreg free
  4128   001F0A                     
  4129                           ;usb_device.c: 1984: UCONbits.PPBRST = 1;
  4130   001F0A  8C6D               	bsf	109,6,c	;volatile
  4131   001F0C                     
  4132                           ;usb_device.c: 1989: for(i = 0; i < (uint8_t)(1+1u); i++)
  4133   001F0C  0E00               	movlw	0
  4134   001F0E  6E17               	movwf	USBStdSetCfgHandler@i^0,c
  4135   001F10                     i2l2856:
  4136                           
  4137                           ;usb_device.c: 1990: {;usb_device.c: 1991: ep_data_in[i].Val = 0u;
  4138   001F10  0E78               	movlw	low _ep_data_in
  4139   001F12  2417               	addwf	USBStdSetCfgHandler@i^0,w,c
  4140   001F14  6ED9               	movwf	fsr2l,c
  4141   001F16  6ADA               	clrf	fsr2h,c
  4142   001F18  0E00               	movlw	high _ep_data_in
  4143   001F1A  22DA               	addwfc	fsr2h,f,c
  4144   001F1C  6ADF               	clrf	indf2,c
  4145                           
  4146                           ;usb_device.c: 1992: ep_data_out[i].Val = 0u;
  4147   001F1E  0E76               	movlw	low _ep_data_out
  4148   001F20  2417               	addwf	USBStdSetCfgHandler@i^0,w,c
  4149   001F22  6ED9               	movwf	fsr2l,c
  4150   001F24  6ADA               	clrf	fsr2h,c
  4151   001F26  0E00               	movlw	high _ep_data_out
  4152   001F28  22DA               	addwfc	fsr2h,f,c
  4153   001F2A  6ADF               	clrf	indf2,c
  4154   001F2C  2A17               	incf	USBStdSetCfgHandler@i^0,f,c
  4155   001F2E  0E01               	movlw	1
  4156   001F30  6417               	cpfsgt	USBStdSetCfgHandler@i^0,c
  4157   001F32  EF9D  F00F         	goto	i2u169_41
  4158   001F36  EF9F  F00F         	goto	i2u169_40
  4159   001F3A                     i2u169_41:
  4160   001F3A  EF88  F00F         	goto	i2l2856
  4161   001F3E                     i2u169_40:
  4162   001F3E                     
  4163                           ;usb_device.c: 1993: };usb_device.c: 1996: memset((void*)&USBAlternateInterface,0x00,1);
  4164   001F3E  0E4E               	movlw	low _USBAlternateInterface
  4165   001F40  6E01               	movwf	i2memset@p1^0,c
  4166   001F42  0E00               	movlw	high _USBAlternateInterface
  4167   001F44  6E02               	movwf	(i2memset@p1+1)^0,c
  4168   001F46  0E00               	movlw	0
  4169   001F48  6E04               	movwf	(i2memset@c+1)^0,c
  4170   001F4A  0E00               	movlw	0
  4171   001F4C  6E03               	movwf	i2memset@c^0,c
  4172   001F4E  0E00               	movlw	0
  4173   001F50  6E06               	movwf	(i2memset@n+1)^0,c
  4174   001F52  0E01               	movlw	1
  4175   001F54  6E05               	movwf	i2memset@n^0,c
  4176   001F56  ECEF  F012         	call	i2_memset	;wreg free
  4177   001F5A                     
  4178                           ;usb_device.c: 1999: UCONbits.PPBRST = 0;
  4179   001F5A  9C6D               	bcf	109,6,c	;volatile
  4180   001F5C                     
  4181                           ;usb_device.c: 2001: pBDTEntryIn[0] = (volatile BDT_ENTRY*)&BDT[2];
  4182   001F5C  0E08               	movlw	8
  4183   001F5E  0100               	movlb	0	; () banked
  4184   001F60  6F6E               	movwf	_pBDTEntryIn& (0+255),b
  4185   001F62  0E04               	movlw	4
  4186   001F64  6F6F               	movwf	(_pBDTEntryIn+1)& (0+255),b
  4187   001F66                     
  4188                           ; BSR set to: 0
  4189                           ;usb_device.c: 2004: pBDTEntryEP0OutCurrent = (volatile BDT_ENTRY*)&BDT[0];
  4190   001F66  0E00               	movlw	0
  4191   001F68  6E38               	movwf	_pBDTEntryEP0OutCurrent^0,c
  4192   001F6A  0E04               	movlw	4
  4193   001F6C  6E39               	movwf	(_pBDTEntryEP0OutCurrent+1)^0,c
  4194   001F6E                     
  4195                           ; BSR set to: 0
  4196                           ;usb_device.c: 2005: pBDTEntryEP0OutNext = pBDTEntryEP0OutCurrent;
  4197   001F6E  C038  F036         	movff	_pBDTEntryEP0OutCurrent,_pBDTEntryEP0OutNext
  4198   001F72  C039  F037         	movff	_pBDTEntryEP0OutCurrent+1,_pBDTEntryEP0OutNext+1
  4199   001F76                     
  4200                           ; BSR set to: 0
  4201                           ;usb_device.c: 2008: USBActiveConfiguration = SetupPkt.bConfigurationValue;
  4202   001F76  C422 F04F          	movff	1058,_USBActiveConfiguration	;volatile
  4203   001F7A                     
  4204                           ; BSR set to: 0
  4205                           ;usb_device.c: 2011: if(USBActiveConfiguration == 0)
  4206   001F7A  504F               	movf	_USBActiveConfiguration^0,w,c	;volatile
  4207   001F7C  A4D8               	btfss	status,2,c
  4208   001F7E  EFC3  F00F         	goto	i2u170_41
  4209   001F82  EFC5  F00F         	goto	i2u170_40
  4210   001F86                     i2u170_41:
  4211   001F86  EFC9  F00F         	goto	i2l2878
  4212   001F8A                     i2u170_40:
  4213   001F8A                     
  4214                           ; BSR set to: 0
  4215                           ;usb_device.c: 2012: {;usb_device.c: 2014: USBDeviceState = ADDRESS_STATE;
  4216   001F8A  0E10               	movlw	16
  4217   001F8C  6E4A               	movwf	_USBDeviceState^0,c	;volatile
  4218                           
  4219                           ;usb_device.c: 2015: }
  4220   001F8E  EFD9  F00F         	goto	i2l286
  4221   001F92                     i2l2878:
  4222                           
  4223                           ; BSR set to: 0
  4224                           ;usb_device.c: 2016: else;usb_device.c: 2017: {;usb_device.c: 2019: USER_USB_CALLBACK_EV
      +                          ENT_HANDLER((USB_EVENT)EVENT_CONFIGURED,(void*)&USBActiveConfiguration,1);
  4225   001F92  0E00               	movlw	0
  4226   001F94  6E10               	movwf	(USER_USB_CALLBACK_EVENT_HANDLER@event+1)^0,c
  4227   001F96  0E01               	movlw	1
  4228   001F98  6E0F               	movwf	USER_USB_CALLBACK_EVENT_HANDLER@event^0,c
  4229   001F9A  0E4F               	movlw	low _USBActiveConfiguration
  4230   001F9C  6E11               	movwf	USER_USB_CALLBACK_EVENT_HANDLER@pdata^0,c
  4231   001F9E  0E00               	movlw	high _USBActiveConfiguration
  4232   001FA0  6E12               	movwf	(USER_USB_CALLBACK_EVENT_HANDLER@pdata+1)^0,c
  4233   001FA2  0E00               	movlw	0
  4234   001FA4  6E14               	movwf	(USER_USB_CALLBACK_EVENT_HANDLER@size+1)^0,c
  4235   001FA6  0E01               	movlw	1
  4236   001FA8  6E13               	movwf	USER_USB_CALLBACK_EVENT_HANDLER@size^0,c
  4237   001FAA  ECE8  F010         	call	_USER_USB_CALLBACK_EVENT_HANDLER	;wreg free
  4238   001FAE                     
  4239                           ;usb_device.c: 2024: USBDeviceState = CONFIGURED_STATE;
  4240   001FAE  0E20               	movlw	32
  4241   001FB0  6E4A               	movwf	_USBDeviceState^0,c	;volatile
  4242   001FB2                     i2l286:
  4243   001FB2  0012               	return		;funcret
  4244   001FB4                     __end_of_USBStdSetCfgHandler:
  4245                           	callstack 0
  4246                           
  4247 ;; *************** function i2_memset *****************
  4248 ;; Defined at:
  4249 ;;		line 8 in file "B:\Program Files\Microchip\xc8\v2.41\pic\sources\c90\common\memset.c"
  4250 ;; Parameters:    Size  Location     Type
  4251 ;;  p1              2    0[COMRAM] PTR void 
  4252 ;;		 -> USBAlternateInterface(1), BDT(32), UEP1(1), 
  4253 ;;  c               2    2[COMRAM] int 
  4254 ;;  n               2    4[COMRAM] unsigned int 
  4255 ;; Auto vars:     Size  Location     Type
  4256 ;;  p               2    6[COMRAM] PTR unsigned char 
  4257 ;;		 -> USBAlternateInterface(1), BDT(32), UEP1(1), 
  4258 ;; Return value:  Size  Location     Type
  4259 ;;                  2    0[COMRAM] PTR void 
  4260 ;; Registers used:
  4261 ;;		wreg, fsr2l, fsr2h, status,2, status,0
  4262 ;; Tracked objects:
  4263 ;;		On entry : 0/0
  4264 ;;		On exit  : 0/0
  4265 ;;		Unchanged: 0/0
  4266 ;; Data sizes:     COMRAM   BANK0   BANK1   BANK2   BANK3   BANK4   BANK5   BANK6   BANK7
  4267 ;;      Params:         6       0       0       0       0       0       0       0       0
  4268 ;;      Locals:         2       0       0       0       0       0       0       0       0
  4269 ;;      Temps:          0       0       0       0       0       0       0       0       0
  4270 ;;      Totals:         8       0       0       0       0       0       0       0       0
  4271 ;;Total ram usage:        8 bytes
  4272 ;; Hardware stack levels used: 1
  4273 ;; This function calls:
  4274 ;;		Nothing
  4275 ;; This function is called by:
  4276 ;;		_USBStdSetCfgHandler
  4277 ;;		i2_USBDeviceInit
  4278 ;; This function uses a non-reentrant model
  4279 ;;
  4280                           
  4281                           	psect	text24
  4282   0025DE                     __ptext24:
  4283                           	callstack 0
  4284   0025DE                     i2_memset:
  4285                           	callstack 23
  4286   0025DE  C001  F007         	movff	i2memset@p1,i2memset@p
  4287   0025E2  C002  F008         	movff	i2memset@p1+1,i2memset@p+1
  4288   0025E6  EFFD  F012         	goto	i2l2786
  4289   0025EA                     i2l2782:
  4290   0025EA  C007  FFD9         	movff	i2memset@p,fsr2l
  4291   0025EE  C008  FFDA         	movff	i2memset@p+1,fsr2h
  4292   0025F2  C003  FFDF         	movff	i2memset@c,indf2
  4293   0025F6  4A07               	infsnz	i2memset@p^0,f,c
  4294   0025F8  2A08               	incf	(i2memset@p+1)^0,f,c
  4295   0025FA                     i2l2786:
  4296   0025FA  0605               	decf	i2memset@n^0,f,c
  4297   0025FC  A0D8               	btfss	status,0,c
  4298   0025FE  0606               	decf	(i2memset@n+1)^0,f,c
  4299   002600  2805               	incf	i2memset@n^0,w,c
  4300   002602  E106               	bnz	i2u162_41
  4301   002604  2806               	incf	(i2memset@n+1)^0,w,c
  4302   002606  A4D8               	btfss	status,2,c
  4303   002608  EF08  F013         	goto	i2u162_41
  4304   00260C  EF0A  F013         	goto	i2u162_40
  4305   002610                     i2u162_41:
  4306   002610  EFF5  F012         	goto	i2l2782
  4307   002614                     i2u162_40:
  4308   002614  0012               	return		;funcret
  4309   002616                     __end_ofi2_memset:
  4310                           	callstack 0
  4311                           
  4312 ;; *************** function _USBStdGetStatusHandler *****************
  4313 ;; Defined at:
  4314 ;;		line 2131 in file "usb_device.c"
  4315 ;; Parameters:    Size  Location     Type
  4316 ;;		None
  4317 ;; Auto vars:     Size  Location     Type
  4318 ;;  p               2    1[COMRAM] PTR struct __BDT
  4319 ;;		 -> RAM(2047), NULL(0), BDT(32), 
  4320 ;; Return value:  Size  Location     Type
  4321 ;;                  1    wreg      void 
  4322 ;; Registers used:
  4323 ;;		wreg, fsr2l, fsr2h, status,2, status,0, prodl, prodh
  4324 ;; Tracked objects:
  4325 ;;		On entry : 0/0
  4326 ;;		On exit  : 0/0
  4327 ;;		Unchanged: 0/0
  4328 ;; Data sizes:     COMRAM   BANK0   BANK1   BANK2   BANK3   BANK4   BANK5   BANK6   BANK7
  4329 ;;      Params:         0       0       0       0       0       0       0       0       0
  4330 ;;      Locals:         2       0       0       0       0       0       0       0       0
  4331 ;;      Temps:          1       0       0       0       0       0       0       0       0
  4332 ;;      Totals:         3       0       0       0       0       0       0       0       0
  4333 ;;Total ram usage:        3 bytes
  4334 ;; Hardware stack levels used: 1
  4335 ;; This function calls:
  4336 ;;		Nothing
  4337 ;; This function is called by:
  4338 ;;		_USBCheckStdRequest
  4339 ;; This function uses a non-reentrant model
  4340 ;;
  4341                           
  4342                           	psect	text25
  4343   001BC6                     __ptext25:
  4344                           	callstack 0
  4345   001BC6                     _USBStdGetStatusHandler:
  4346                           	callstack 21
  4347   001BC6                     
  4348                           ;usb_device.c: 2133: CtrlTrfData[0] = 0;
  4349   001BC6  0E00               	movlw	0
  4350   001BC8  0104               	movlb	4	; () banked
  4351   001BCA  6F28               	movwf	40,b	;volatile
  4352                           
  4353                           ;usb_device.c: 2134: CtrlTrfData[1] = 0;
  4354   001BCC  0E00               	movlw	0
  4355   001BCE  6F29               	movwf	41,b	;volatile
  4356                           
  4357                           ;usb_device.c: 2136: switch(SetupPkt.Recipient)
  4358   001BD0  EF4A  F00E         	goto	i2l2938
  4359   001BD4                     i2l304:
  4360                           
  4361                           ; BSR set to: 4
  4362                           ;usb_device.c: 2139: inPipes[0].info.bits.busy = 1;
  4363   001BD4  0100               	movlb	0	; () banked
  4364   001BD6  8F6B               	bsf	(_inPipes+3)& (0+255),7,b	;volatile
  4365   001BD8                     
  4366                           ; BSR set to: 0
  4367                           ;usb_device.c: 2147: };usb_device.c: 2149: if(RemoteWakeup == 1)
  4368   001BD8  0447               	decf	_RemoteWakeup^0,w,c	;volatile
  4369   001BDA  A4D8               	btfss	status,2,c
  4370   001BDC  EFF2  F00D         	goto	i2u177_41
  4371   001BE0  EFF4  F00D         	goto	i2u177_40
  4372   001BE4                     i2u177_41:
  4373   001BE4  EF5A  F00E         	goto	i2l307
  4374   001BE8                     i2u177_40:
  4375   001BE8                     
  4376                           ; BSR set to: 0
  4377                           ;usb_device.c: 2150: {;usb_device.c: 2151: CtrlTrfData[0]|=0x02;
  4378   001BE8  0104               	movlb	4	; () banked
  4379   001BEA  8328               	bsf	40,1,b	;volatile
  4380   001BEC  EF5A  F00E         	goto	i2l307
  4381   001BF0                     i2l308:
  4382                           
  4383                           ; BSR set to: 4
  4384                           ;usb_device.c: 2155: inPipes[0].info.bits.busy = 1;
  4385   001BF0  0100               	movlb	0	; () banked
  4386   001BF2  8F6B               	bsf	(_inPipes+3)& (0+255),7,b	;volatile
  4387                           
  4388                           ;usb_device.c: 2156: break;
  4389   001BF4  EF5A  F00E         	goto	i2l307
  4390   001BF8                     i2l309:
  4391                           
  4392                           ; BSR set to: 4
  4393                           ;usb_device.c: 2158: inPipes[0].info.bits.busy = 1;
  4394   001BF8  0100               	movlb	0	; () banked
  4395   001BFA  8F6B               	bsf	(_inPipes+3)& (0+255),7,b	;volatile
  4396   001BFC                     
  4397                           ; BSR set to: 0
  4398                           ;usb_device.c: 2162: if(SetupPkt.EPNum != 0)
  4399   001BFC  0104               	movlb	4	; () banked
  4400   001BFE  5124               	movf	36,w,b	;volatile
  4401   001C00  0B0F               	andlw	15
  4402   001C02  0900               	iorlw	0
  4403   001C04  B4D8               	btfsc	status,2,c
  4404   001C06  EF07  F00E         	goto	i2u178_41
  4405   001C0A  EF09  F00E         	goto	i2u178_40
  4406   001C0E                     i2u178_41:
  4407   001C0E  EF5A  F00E         	goto	i2l307
  4408   001C12                     i2u178_40:
  4409   001C12                     
  4410                           ; BSR set to: 4
  4411                           ;usb_device.c: 2163: {;usb_device.c: 2164: BDT_ENTRY *p;;usb_device.c: 2166: if(SetupPkt
      +                          .EPDir == 0)
  4412   001C12  BF24               	btfsc	36,7,b	;volatile
  4413   001C14  EF0E  F00E         	goto	i2u179_41
  4414   001C18  EF10  F00E         	goto	i2u179_40
  4415   001C1C                     i2u179_41:
  4416   001C1C  EF21  F00E         	goto	i2l2928
  4417   001C20                     i2u179_40:
  4418   001C20                     
  4419                           ; BSR set to: 4
  4420                           ;usb_device.c: 2167: {;usb_device.c: 2168: p = (BDT_ENTRY*)pBDTEntryOut[SetupPkt.EPNum];
  4421   001C20  5124               	movf	36,w,b	;volatile
  4422   001C22  0B0F               	andlw	15
  4423   001C24  6E01               	movwf	??_USBStdGetStatusHandler^0,c
  4424   001C26  5001               	movf	??_USBStdGetStatusHandler^0,w,c
  4425   001C28  0D02               	mullw	2
  4426   001C2A  0E72               	movlw	low _pBDTEntryOut
  4427   001C2C  24F3               	addwf	243,w,c
  4428   001C2E  6ED9               	movwf	fsr2l,c
  4429   001C30  0E00               	movlw	high _pBDTEntryOut
  4430   001C32  20F4               	addwfc	prodh,w,c
  4431   001C34  6EDA               	movwf	fsr2h,c
  4432   001C36  CFDE F002          	movff	postinc2,USBStdGetStatusHandler@p
  4433   001C3A  CFDD F003          	movff	postdec2,USBStdGetStatusHandler@p+1
  4434                           
  4435                           ;usb_device.c: 2169: }
  4436   001C3E  EF30  F00E         	goto	i2l2930
  4437   001C42                     i2l2928:
  4438                           
  4439                           ; BSR set to: 4
  4440                           ;usb_device.c: 2170: else;usb_device.c: 2171: {;usb_device.c: 2172: p = (BDT_ENTRY*)pBDT
      +                          EntryIn[SetupPkt.EPNum];
  4441   001C42  5124               	movf	36,w,b	;volatile
  4442   001C44  0B0F               	andlw	15
  4443   001C46  6E01               	movwf	??_USBStdGetStatusHandler^0,c
  4444   001C48  5001               	movf	??_USBStdGetStatusHandler^0,w,c
  4445   001C4A  0D02               	mullw	2
  4446   001C4C  0E6E               	movlw	low _pBDTEntryIn
  4447   001C4E  24F3               	addwf	243,w,c
  4448   001C50  6ED9               	movwf	fsr2l,c
  4449   001C52  0E00               	movlw	high _pBDTEntryIn
  4450   001C54  20F4               	addwfc	prodh,w,c
  4451   001C56  6EDA               	movwf	fsr2h,c
  4452   001C58  CFDE F002          	movff	postinc2,USBStdGetStatusHandler@p
  4453   001C5C  CFDD F003          	movff	postdec2,USBStdGetStatusHandler@p+1
  4454   001C60                     i2l2930:
  4455                           
  4456                           ; BSR set to: 4
  4457                           ;usb_device.c: 2173: };usb_device.c: 2175: if((p->STAT.UOWN == 1) && (p->STAT.BSTALL == 
      +                          1))
  4458   001C60  C002  FFD9         	movff	USBStdGetStatusHandler@p,fsr2l
  4459   001C64  C003  FFDA         	movff	USBStdGetStatusHandler@p+1,fsr2h
  4460   001C68  AEDF               	btfss	indf2,7,c
  4461   001C6A  EF39  F00E         	goto	i2u180_41
  4462   001C6E  EF3B  F00E         	goto	i2u180_40
  4463   001C72                     i2u180_41:
  4464   001C72  EF5A  F00E         	goto	i2l307
  4465   001C76                     i2u180_40:
  4466   001C76                     
  4467                           ; BSR set to: 4
  4468   001C76  C002  FFD9         	movff	USBStdGetStatusHandler@p,fsr2l
  4469   001C7A  C003  FFDA         	movff	USBStdGetStatusHandler@p+1,fsr2h
  4470   001C7E  A4DF               	btfss	indf2,2,c
  4471   001C80  EF44  F00E         	goto	i2u181_41
  4472   001C84  EF46  F00E         	goto	i2u181_40
  4473   001C88                     i2u181_41:
  4474   001C88  EF5A  F00E         	goto	i2l307
  4475   001C8C                     i2u181_40:
  4476   001C8C                     
  4477                           ; BSR set to: 4
  4478                           ;usb_device.c: 2176: {;usb_device.c: 2177: CtrlTrfData[0]=0x01;
  4479   001C8C  0E01               	movlw	1
  4480   001C8E  6F28               	movwf	40,b	;volatile
  4481   001C90  EF5A  F00E         	goto	i2l307
  4482   001C94                     i2l2938:
  4483                           
  4484                           ; BSR set to: 4
  4485   001C94  5120               	movf	32,w,b	;volatile
  4486   001C96  0B1F               	andlw	31
  4487                           
  4488                           ; Switch size 1, requested type "simple"
  4489                           ; Number of cases is 3, Range of values is 0 to 2
  4490                           ; switch strategies available:
  4491                           ; Name         Instructions Cycles
  4492                           ; simple_byte           10     6 (average)
  4493                           ;	Chosen strategy is simple_byte
  4494   001C98  0A00               	xorlw	0	; case 0
  4495   001C9A  B4D8               	btfsc	status,2,c
  4496   001C9C  EFEA  F00D         	goto	i2l304
  4497   001CA0  0A01               	xorlw	1	; case 1
  4498   001CA2  B4D8               	btfsc	status,2,c
  4499   001CA4  EFF8  F00D         	goto	i2l308
  4500   001CA8  0A03               	xorlw	3	; case 2
  4501   001CAA  B4D8               	btfsc	status,2,c
  4502   001CAC  EFFC  F00D         	goto	i2l309
  4503   001CB0  EF5A  F00E         	goto	i2l307
  4504   001CB4                     i2l307:
  4505                           
  4506                           ;usb_device.c: 2183: if(inPipes[0].info.bits.busy == 1)
  4507   001CB4  0100               	movlb	0	; () banked
  4508   001CB6  AF6B               	btfss	(_inPipes+3)& (0+255),7,b	;volatile
  4509   001CB8  EF60  F00E         	goto	i2u182_41
  4510   001CBC  EF62  F00E         	goto	i2u182_40
  4511   001CC0                     i2u182_41:
  4512   001CC0  EF69  F00E         	goto	i2l315
  4513   001CC4                     i2u182_40:
  4514   001CC4                     
  4515                           ; BSR set to: 0
  4516                           ;usb_device.c: 2184: {;usb_device.c: 2185: inPipes[0].pSrc.bRam = (uint8_t*)&CtrlTrfData
      +                          ;
  4517   001CC4  0E28               	movlw	40
  4518   001CC6  6F68               	movwf	_inPipes& (0+255),b	;volatile
  4519   001CC8  0E04               	movlw	4
  4520   001CCA  6F69               	movwf	(_inPipes+1)& (0+255),b	;volatile
  4521   001CCC                     
  4522                           ; BSR set to: 0
  4523                           ;usb_device.c: 2186: inPipes[0].info.bits.ctrl_trf_mem = 0x01;
  4524   001CCC  816B               	bsf	(_inPipes+3)& (0+255),0,b	;volatile
  4525   001CCE                     
  4526                           ; BSR set to: 0
  4527                           ;usb_device.c: 2187: inPipes[0].wCount.v[0] = 2;
  4528   001CCE  0E02               	movlw	2
  4529   001CD0  6F6C               	movwf	(_inPipes+4)& (0+255),b	;volatile
  4530   001CD2                     i2l315:
  4531                           
  4532                           ; BSR set to: 0
  4533   001CD2  0012               	return		;funcret
  4534   001CD4                     __end_of_USBStdGetStatusHandler:
  4535                           	callstack 0
  4536                           
  4537 ;; *************** function _USBStdGetDscHandler *****************
  4538 ;; Defined at:
  4539 ;;		line 2045 in file "usb_device.c"
  4540 ;; Parameters:    Size  Location     Type
  4541 ;;		None
  4542 ;; Auto vars:     Size  Location     Type
  4543 ;;		None
  4544 ;; Return value:  Size  Location     Type
  4545 ;;                  1    wreg      void 
  4546 ;; Registers used:
  4547 ;;		wreg, fsr1l, fsr1h, status,2, status,0, tblptrl, tblptrh, tblptru, prodl, prodh
  4548 ;; Tracked objects:
  4549 ;;		On entry : 0/0
  4550 ;;		On exit  : 0/0
  4551 ;;		Unchanged: 0/0
  4552 ;; Data sizes:     COMRAM   BANK0   BANK1   BANK2   BANK3   BANK4   BANK5   BANK6   BANK7
  4553 ;;      Params:         0       0       0       0       0       0       0       0       0
  4554 ;;      Locals:         0       0       0       0       0       0       0       0       0
  4555 ;;      Temps:          2       0       0       0       0       0       0       0       0
  4556 ;;      Totals:         2       0       0       0       0       0       0       0       0
  4557 ;;Total ram usage:        2 bytes
  4558 ;; Hardware stack levels used: 1
  4559 ;; This function calls:
  4560 ;;		Nothing
  4561 ;; This function is called by:
  4562 ;;		_USBCheckStdRequest
  4563 ;; This function uses a non-reentrant model
  4564 ;;
  4565                           
  4566                           	psect	text26
  4567   000E4C                     __ptext26:
  4568                           	callstack 0
  4569   000E4C                     _USBStdGetDscHandler:
  4570                           	callstack 21
  4571   000E4C                     
  4572                           ;usb_device.c: 2047: if(SetupPkt.bmRequestType == 0x80)
  4573   000E4C  0E80               	movlw	128
  4574   000E4E  0104               	movlb	4	; () banked
  4575   000E50  1920               	xorwf	32,w,b	;volatile
  4576   000E52  A4D8               	btfss	status,2,c
  4577   000E54  EF2E  F007         	goto	i2u171_41
  4578   000E58  EF30  F007         	goto	i2u171_40
  4579   000E5C                     i2u171_41:
  4580   000E5C  EFD5  F007         	goto	i2l300
  4581   000E60                     i2u171_40:
  4582   000E60                     
  4583                           ; BSR set to: 4
  4584                           ;usb_device.c: 2048: {;usb_device.c: 2049: inPipes[0].info.Val = 0x00 | 0x80 | 0x40;
  4585   000E60  0EC0               	movlw	192
  4586   000E62  0100               	movlb	0	; () banked
  4587   000E64  6F6B               	movwf	(_inPipes+3)& (0+255),b	;volatile
  4588                           
  4589                           ;usb_device.c: 2051: switch(SetupPkt.bDescriptorType)
  4590   000E66  EFC5  F007         	goto	i2l2912
  4591   000E6A                     i2l2886:
  4592                           
  4593                           ; BSR set to: 4
  4594                           ;usb_device.c: 2057: inPipes[0].pSrc.bRom = (const uint8_t*)&device_dsc;
  4595   000E6A  0EB1               	movlw	low _device_dsc
  4596   000E6C  0100               	movlb	0	; () banked
  4597   000E6E  6F68               	movwf	_inPipes& (0+255),b	;volatile
  4598   000E70  0E08               	movlw	high _device_dsc
  4599   000E72  6F69               	movwf	(_inPipes+1)& (0+255),b	;volatile
  4600   000E74                     
  4601                           ; BSR set to: 0
  4602                           ;usb_device.c: 2059: inPipes[0].wCount.Val = sizeof(device_dsc);
  4603   000E74  0E00               	movlw	0
  4604   000E76  6F6D               	movwf	(_inPipes+5)& (0+255),b	;volatile
  4605   000E78  0E12               	movlw	18
  4606   000E7A  6F6C               	movwf	(_inPipes+4)& (0+255),b	;volatile
  4607                           
  4608                           ;usb_device.c: 2060: break;
  4609   000E7C  EFD5  F007         	goto	i2l300
  4610   000E80                     i2l2890:
  4611                           
  4612                           ; BSR set to: 4
  4613                           ;usb_device.c: 2065: if(SetupPkt.bDscIndex < 1)
  4614   000E80  5122               	movf	34,w,b	;volatile
  4615   000E82  A4D8               	btfss	status,2,c
  4616   000E84  EF46  F007         	goto	i2u172_41
  4617   000E88  EF48  F007         	goto	i2u172_40
  4618   000E8C                     i2u172_41:
  4619   000E8C  EF89  F007         	goto	i2l2898
  4620   000E90                     i2u172_40:
  4621   000E90                     
  4622                           ; BSR set to: 4
  4623                           ;usb_device.c: 2066: {;usb_device.c: 2070: inPipes[0].pSrc.bRom = *(USB_CD_Ptr+SetupPkt.
      +                          bDscIndex);
  4624   000E90  5122               	movf	34,w,b	;volatile
  4625   000E92  0D02               	mullw	2
  4626   000E94  0E07               	movlw	low _USB_CD_Ptr
  4627   000E96  24F3               	addwf	243,w,c
  4628   000E98  6EF6               	movwf	tblptrl,c
  4629   000E9A  0E08               	movlw	high _USB_CD_Ptr
  4630   000E9C  20F4               	addwfc	244,w,c
  4631   000E9E  6EF7               	movwf	tblptrh,c
  4632   000EA0                     	if	0	;There are less than 3 active tblptr bytes
  4633   000EA0                     	endif
  4634   000EA0  0009               	tblrd		*+
  4635   000EA2  CFF5 F068          	movff	tablat,_inPipes	;volatile
  4636   000EA6  000A               	tblrd		*-
  4637   000EA8  CFF5 F069          	movff	tablat,_inPipes+1	;volatile
  4638   000EAC                     
  4639                           ; BSR set to: 4
  4640                           ;usb_device.c: 2076: inPipes[0].wCount.byte.LB = *(inPipes[0].pSrc.bRom+2);
  4641   000EAC  0E02               	movlw	2
  4642   000EAE  0100               	movlb	0	; () banked
  4643   000EB0  2568               	addwf	_inPipes& (0+255),w,b	;volatile
  4644   000EB2  6E01               	movwf	??_USBStdGetDscHandler^0,c
  4645   000EB4  0E00               	movlw	0
  4646   000EB6  2169               	addwfc	(_inPipes+1)& (0+255),w,b	;volatile
  4647   000EB8  6E02               	movwf	(??_USBStdGetDscHandler+1)^0,c
  4648   000EBA  C001  FFF6         	movff	??_USBStdGetDscHandler,tblptrl
  4649   000EBE  C002  FFF7         	movff	??_USBStdGetDscHandler+1,tblptrh
  4650   000EC2  6AF8               	clrf	tblptru,c
  4651   000EC4  0E07               	movlw	(high __ramtop+-1)
  4652   000EC6  64F7               	cpfsgt	tblptrh,c
  4653   000EC8  D003               	bra	i2u173_47
  4654   000ECA  0008               	tblrd		*
  4655   000ECC  50F5               	movf	tablat,w,c
  4656   000ECE  D005               	bra	i2u173_40
  4657   000ED0                     i2u173_47:
  4658   000ED0  CFF6 FFE1          	movff	tblptrl,fsr1l
  4659   000ED4  CFF7 FFE2          	movff	tblptrh,fsr1h
  4660   000ED8  50E7               	movf	indf1,w,c
  4661   000EDA                     i2u173_40:
  4662   000EDA  0100               	movlb	0	; () banked
  4663   000EDC  6F6C               	movwf	(_inPipes+4)& (0+255),b	;volatile
  4664   000EDE                     
  4665                           ; BSR set to: 0
  4666                           ;usb_device.c: 2077: inPipes[0].wCount.byte.HB = *(inPipes[0].pSrc.bRom+3);
  4667   000EDE  0E03               	movlw	3
  4668   000EE0  2568               	addwf	_inPipes& (0+255),w,b	;volatile
  4669   000EE2  6E01               	movwf	??_USBStdGetDscHandler^0,c
  4670   000EE4  0E00               	movlw	0
  4671   000EE6  2169               	addwfc	(_inPipes+1)& (0+255),w,b	;volatile
  4672   000EE8  6E02               	movwf	(??_USBStdGetDscHandler+1)^0,c
  4673   000EEA  C001  FFF6         	movff	??_USBStdGetDscHandler,tblptrl
  4674   000EEE  C002  FFF7         	movff	??_USBStdGetDscHandler+1,tblptrh
  4675   000EF2  6AF8               	clrf	tblptru,c
  4676   000EF4  0E07               	movlw	(high __ramtop+-1)
  4677   000EF6  64F7               	cpfsgt	tblptrh,c
  4678   000EF8  D003               	bra	i2u174_47
  4679   000EFA  0008               	tblrd		*
  4680   000EFC  50F5               	movf	tablat,w,c
  4681   000EFE  D005               	bra	i2u174_40
  4682   000F00                     i2u174_47:
  4683   000F00  CFF6 FFE1          	movff	tblptrl,fsr1l
  4684   000F04  CFF7 FFE2          	movff	tblptrh,fsr1h
  4685   000F08  50E7               	movf	indf1,w,c
  4686   000F0A                     i2u174_40:
  4687   000F0A  0100               	movlb	0	; () banked
  4688   000F0C  6F6D               	movwf	(_inPipes+5)& (0+255),b	;volatile
  4689                           
  4690                           ;usb_device.c: 2078: }
  4691   000F0E  EFD5  F007         	goto	i2l300
  4692   000F12                     i2l2898:
  4693                           
  4694                           ; BSR set to: 4
  4695                           ;usb_device.c: 2079: else;usb_device.c: 2080: {;usb_device.c: 2081: inPipes[0].info.Val 
      +                          = 0;
  4696   000F12  0E00               	movlw	0
  4697   000F14  0100               	movlb	0	; () banked
  4698   000F16  6F6B               	movwf	(_inPipes+3)& (0+255),b	;volatile
  4699   000F18  EFD5  F007         	goto	i2l300
  4700   000F1C                     i2l2900:
  4701                           
  4702                           ; BSR set to: 4
  4703                           ;usb_device.c: 2088: if(SetupPkt.bDscIndex<3)
  4704   000F1C  0E03               	movlw	3
  4705   000F1E  6122               	cpfslt	34,b	;volatile
  4706   000F20  EF94  F007         	goto	i2u175_41
  4707   000F24  EF96  F007         	goto	i2u175_40
  4708   000F28                     i2u175_41:
  4709   000F28  EFBB  F007         	goto	i2l2906
  4710   000F2C                     i2u175_40:
  4711   000F2C                     
  4712                           ; BSR set to: 4
  4713                           ;usb_device.c: 2089: {;usb_device.c: 2091: inPipes[0].pSrc.bRom = *(USB_SD_Ptr+SetupPkt.
      +                          bDscIndex);
  4714   000F2C  5122               	movf	34,w,b	;volatile
  4715   000F2E  0D02               	mullw	2
  4716   000F30  0E01               	movlw	low _USB_SD_Ptr
  4717   000F32  24F3               	addwf	243,w,c
  4718   000F34  6EF6               	movwf	tblptrl,c
  4719   000F36  0E08               	movlw	high _USB_SD_Ptr
  4720   000F38  20F4               	addwfc	244,w,c
  4721   000F3A  6EF7               	movwf	tblptrh,c
  4722   000F3C                     	if	0	;There are less than 3 active tblptr bytes
  4723   000F3C                     	endif
  4724   000F3C  0009               	tblrd		*+
  4725   000F3E  CFF5 F068          	movff	tablat,_inPipes	;volatile
  4726   000F42  000A               	tblrd		*-
  4727   000F44  CFF5 F069          	movff	tablat,_inPipes+1	;volatile
  4728   000F48                     
  4729                           ; BSR set to: 4
  4730                           ;usb_device.c: 2093: inPipes[0].wCount.Val = *inPipes[0].pSrc.bRom;
  4731   000F48  C068  FFF6         	movff	_inPipes,tblptrl	;volatile
  4732   000F4C  C069  FFF7         	movff	_inPipes+1,tblptrh	;volatile
  4733   000F50  6AF8               	clrf	tblptru,c
  4734   000F52  0E07               	movlw	(high __ramtop+-1)
  4735   000F54  64F7               	cpfsgt	tblptrh,c
  4736   000F56  D003               	bra	i2u176_47
  4737   000F58  0008               	tblrd		*
  4738   000F5A  50F5               	movf	tablat,w,c
  4739   000F5C  D005               	bra	i2u176_40
  4740   000F5E                     i2u176_47:
  4741   000F5E  CFF6 FFE1          	movff	tblptrl,fsr1l
  4742   000F62  CFF7 FFE2          	movff	tblptrh,fsr1h
  4743   000F66  50E7               	movf	indf1,w,c
  4744   000F68                     i2u176_40:
  4745   000F68  6E01               	movwf	??_USBStdGetDscHandler^0,c
  4746   000F6A  5001               	movf	??_USBStdGetDscHandler^0,w,c
  4747   000F6C  0100               	movlb	0	; () banked
  4748   000F6E  6F6C               	movwf	(_inPipes+4)& (0+255),b	;volatile
  4749   000F70  6B6D               	clrf	(_inPipes+5)& (0+255),b	;volatile
  4750                           
  4751                           ;usb_device.c: 2094: }
  4752   000F72  EFD5  F007         	goto	i2l300
  4753   000F76                     i2l2906:
  4754                           
  4755                           ; BSR set to: 4
  4756                           ;usb_device.c: 2104: else;usb_device.c: 2105: {;usb_device.c: 2106: inPipes[0].info.Val 
      +                          = 0;
  4757   000F76  0E00               	movlw	0
  4758   000F78  0100               	movlb	0	; () banked
  4759   000F7A  6F6B               	movwf	(_inPipes+3)& (0+255),b	;volatile
  4760   000F7C  EFD5  F007         	goto	i2l300
  4761   000F80                     i2l2908:
  4762                           
  4763                           ; BSR set to: 4
  4764                           ;usb_device.c: 2110: inPipes[0].info.Val = 0;
  4765   000F80  0E00               	movlw	0
  4766   000F82  0100               	movlb	0	; () banked
  4767   000F84  6F6B               	movwf	(_inPipes+3)& (0+255),b	;volatile
  4768                           
  4769                           ;usb_device.c: 2111: break;
  4770   000F86  EFD5  F007         	goto	i2l300
  4771   000F8A                     i2l2912:
  4772                           
  4773                           ; BSR set to: 0
  4774   000F8A  0104               	movlb	4	; () banked
  4775   000F8C  5123               	movf	35,w,b	;volatile
  4776                           
  4777                           ; Switch size 1, requested type "simple"
  4778                           ; Number of cases is 3, Range of values is 1 to 3
  4779                           ; switch strategies available:
  4780                           ; Name         Instructions Cycles
  4781                           ; simple_byte           10     6 (average)
  4782                           ;	Chosen strategy is simple_byte
  4783   000F8E  0A01               	xorlw	1	; case 1
  4784   000F90  B4D8               	btfsc	status,2,c
  4785   000F92  EF35  F007         	goto	i2l2886
  4786   000F96  0A03               	xorlw	3	; case 2
  4787   000F98  B4D8               	btfsc	status,2,c
  4788   000F9A  EF40  F007         	goto	i2l2890
  4789   000F9E  0A01               	xorlw	1	; case 3
  4790   000FA0  B4D8               	btfsc	status,2,c
  4791   000FA2  EF8E  F007         	goto	i2l2900
  4792   000FA6  EFC0  F007         	goto	i2l2908
  4793   000FAA                     i2l300:
  4794   000FAA  0012               	return		;funcret
  4795   000FAC                     __end_of_USBStdGetDscHandler:
  4796                           	callstack 0
  4797                           
  4798 ;; *************** function _USBStdFeatureReqHandler *****************
  4799 ;; Defined at:
  4800 ;;		line 2759 in file "usb_device.c"
  4801 ;; Parameters:    Size  Location     Type
  4802 ;;		None
  4803 ;; Auto vars:     Size  Location     Type
  4804 ;;  p               2   27[COMRAM] PTR struct __BDT
  4805 ;;		 -> RAM(2047), NULL(0), BDT(32), 
  4806 ;;  pUEP            2   24[COMRAM] PTR unsigned char 
  4807 ;;		 -> UEP0(1), 
  4808 ;;  current_ep_d    1   26[COMRAM] struct .
  4809 ;; Return value:  Size  Location     Type
  4810 ;;                  1    wreg      void 
  4811 ;; Registers used:
  4812 ;;		wreg, fsr2l, fsr2h, status,2, status,0, prodl, prodh, cstack
  4813 ;; Tracked objects:
  4814 ;;		On entry : 0/0
  4815 ;;		On exit  : 0/0
  4816 ;;		Unchanged: 0/0
  4817 ;; Data sizes:     COMRAM   BANK0   BANK1   BANK2   BANK3   BANK4   BANK5   BANK6   BANK7
  4818 ;;      Params:         0       0       0       0       0       0       0       0       0
  4819 ;;      Locals:         5       0       0       0       0       0       0       0       0
  4820 ;;      Temps:          2       0       0       0       0       0       0       0       0
  4821 ;;      Totals:         7       0       0       0       0       0       0       0       0
  4822 ;;Total ram usage:        7 bytes
  4823 ;; Hardware stack levels used: 1
  4824 ;; Hardware stack levels required when called: 4
  4825 ;; This function calls:
  4826 ;;		_USER_USB_CALLBACK_EVENT_HANDLER
  4827 ;; This function is called by:
  4828 ;;		_USBCheckStdRequest
  4829 ;; This function uses a non-reentrant model
  4830 ;;
  4831                           
  4832                           	psect	text27
  4833   0008C8                     __ptext27:
  4834                           	callstack 0
  4835   0008C8                     _USBStdFeatureReqHandler:
  4836                           	callstack 17
  4837   0008C8                     
  4838                           ;usb_device.c: 2761: BDT_ENTRY *p;;usb_device.c: 2762: EP_STATUS current_ep_data;;usb_de
      +                          vice.c: 2766: unsigned char* pUEP;;usb_device.c: 2770: if((SetupPkt.bFeature == 1)&&;usb
      +                          _device.c: 2771: (SetupPkt.Recipient == (0x00)))
  4839   0008C8  0104               	movlb	4	; () banked
  4840   0008CA  0522               	decf	34,w,b	;volatile
  4841   0008CC  A4D8               	btfss	status,2,c
  4842   0008CE  EF6B  F004         	goto	i2u183_41
  4843   0008D2  EF6D  F004         	goto	i2u183_40
  4844   0008D6                     i2u183_41:
  4845   0008D6  EF89  F004         	goto	i2l382
  4846   0008DA                     i2u183_40:
  4847   0008DA                     
  4848                           ; BSR set to: 4
  4849   0008DA  5120               	movf	32,w,b	;volatile
  4850   0008DC  0B1F               	andlw	31
  4851   0008DE  0900               	iorlw	0
  4852   0008E0  A4D8               	btfss	status,2,c
  4853   0008E2  EF75  F004         	goto	i2u184_41
  4854   0008E6  EF77  F004         	goto	i2u184_40
  4855   0008EA                     i2u184_41:
  4856   0008EA  EF89  F004         	goto	i2l382
  4857   0008EE                     i2u184_40:
  4858   0008EE                     
  4859                           ; BSR set to: 4
  4860                           ;usb_device.c: 2772: {;usb_device.c: 2773: inPipes[0].info.bits.busy = 1;
  4861   0008EE  0100               	movlb	0	; () banked
  4862   0008F0  8F6B               	bsf	(_inPipes+3)& (0+255),7,b	;volatile
  4863   0008F2                     
  4864                           ; BSR set to: 0
  4865                           ;usb_device.c: 2774: if(SetupPkt.bRequest == 3)
  4866   0008F2  0E03               	movlw	3
  4867   0008F4  0104               	movlb	4	; () banked
  4868   0008F6  1921               	xorwf	33,w,b	;volatile
  4869   0008F8  A4D8               	btfss	status,2,c
  4870   0008FA  EF81  F004         	goto	i2u185_41
  4871   0008FE  EF83  F004         	goto	i2u185_40
  4872   000902                     i2u185_41:
  4873   000902  EF87  F004         	goto	i2l2956
  4874   000906                     i2u185_40:
  4875   000906                     
  4876                           ; BSR set to: 4
  4877                           ;usb_device.c: 2775: RemoteWakeup = 1;
  4878   000906  0E01               	movlw	1
  4879   000908  6E47               	movwf	_RemoteWakeup^0,c	;volatile
  4880   00090A  EF89  F004         	goto	i2l382
  4881   00090E                     i2l2956:
  4882                           
  4883                           ; BSR set to: 4
  4884                           ;usb_device.c: 2776: else;usb_device.c: 2777: RemoteWakeup = 0;
  4885   00090E  0E00               	movlw	0
  4886   000910  6E47               	movwf	_RemoteWakeup^0,c	;volatile
  4887   000912                     i2l382:
  4888                           
  4889                           ; BSR set to: 4
  4890                           ;usb_device.c: 2778: };usb_device.c: 2781: if((SetupPkt.bFeature == 0)&&;usb_device.c: 2
      +                          782: (SetupPkt.Recipient == (0x02))&&;usb_device.c: 2783: (SetupPkt.EPNum != 0) && (Setu
      +                          pPkt.EPNum <= 1)&&;usb_device.c: 2784: (USBDeviceState == CONFIGURED_STATE))
  4891   000912  5122               	movf	34,w,b	;volatile
  4892   000914  A4D8               	btfss	status,2,c
  4893   000916  EF8F  F004         	goto	i2u186_41
  4894   00091A  EF91  F004         	goto	i2u186_40
  4895   00091E                     i2u186_41:
  4896   00091E  EF11  F006         	goto	i2l405
  4897   000922                     i2u186_40:
  4898   000922                     
  4899                           ; BSR set to: 4
  4900   000922  5120               	movf	32,w,b	;volatile
  4901   000924  0B1F               	andlw	31
  4902   000926  0A02               	xorlw	2
  4903   000928  A4D8               	btfss	status,2,c
  4904   00092A  EF99  F004         	goto	i2u187_41
  4905   00092E  EF9B  F004         	goto	i2u187_40
  4906   000932                     i2u187_41:
  4907   000932  EF11  F006         	goto	i2l405
  4908   000936                     i2u187_40:
  4909   000936                     
  4910                           ; BSR set to: 4
  4911   000936  5124               	movf	36,w,b	;volatile
  4912   000938  0B0F               	andlw	15
  4913   00093A  0900               	iorlw	0
  4914   00093C  B4D8               	btfsc	status,2,c
  4915   00093E  EFA3  F004         	goto	i2u188_41
  4916   000942  EFA5  F004         	goto	i2u188_40
  4917   000946                     i2u188_41:
  4918   000946  EF11  F006         	goto	i2l405
  4919   00094A                     i2u188_40:
  4920   00094A                     
  4921                           ; BSR set to: 4
  4922   00094A  5124               	movf	36,w,b	;volatile
  4923   00094C  0B0F               	andlw	15
  4924   00094E  6E17               	movwf	??_USBStdFeatureReqHandler^0,c
  4925   000950  0E02               	movlw	2
  4926   000952  6017               	cpfslt	??_USBStdFeatureReqHandler^0,c
  4927   000954  EFAE  F004         	goto	i2u189_41
  4928   000958  EFB0  F004         	goto	i2u189_40
  4929   00095C                     i2u189_41:
  4930   00095C  EF11  F006         	goto	i2l405
  4931   000960                     i2u189_40:
  4932   000960                     
  4933                           ; BSR set to: 4
  4934   000960  0E20               	movlw	32
  4935   000962  184A               	xorwf	_USBDeviceState^0,w,c	;volatile
  4936   000964  A4D8               	btfss	status,2,c
  4937   000966  EFB7  F004         	goto	i2u190_41
  4938   00096A  EFB9  F004         	goto	i2u190_40
  4939   00096E                     i2u190_41:
  4940   00096E  EF11  F006         	goto	i2l405
  4941   000972                     i2u190_40:
  4942   000972                     
  4943                           ; BSR set to: 4
  4944                           ;usb_device.c: 2785: {;usb_device.c: 2788: inPipes[0].info.bits.busy = 1;
  4945   000972  0100               	movlb	0	; () banked
  4946   000974  8F6B               	bsf	(_inPipes+3)& (0+255),7,b	;volatile
  4947                           
  4948                           ;usb_device.c: 2791: if(SetupPkt.EPDir == 0)
  4949   000976  0104               	movlb	4	; () banked
  4950   000978  BF24               	btfsc	36,7,b	;volatile
  4951   00097A  EFC1  F004         	goto	i2u191_41
  4952   00097E  EFC3  F004         	goto	i2u191_40
  4953   000982                     i2u191_41:
  4954   000982  EFE0  F004         	goto	i2l2972
  4955   000986                     i2u191_40:
  4956   000986                     
  4957                           ; BSR set to: 4
  4958                           ;usb_device.c: 2792: {;usb_device.c: 2793: p = (BDT_ENTRY*)pBDTEntryOut[SetupPkt.EPNum];
  4959   000986  5124               	movf	36,w,b	;volatile
  4960   000988  0B0F               	andlw	15
  4961   00098A  6E17               	movwf	??_USBStdFeatureReqHandler^0,c
  4962   00098C  5017               	movf	??_USBStdFeatureReqHandler^0,w,c
  4963   00098E  0D02               	mullw	2
  4964   000990  0E72               	movlw	low _pBDTEntryOut
  4965   000992  24F3               	addwf	243,w,c
  4966   000994  6ED9               	movwf	fsr2l,c
  4967   000996  0E00               	movlw	high _pBDTEntryOut
  4968   000998  20F4               	addwfc	prodh,w,c
  4969   00099A  6EDA               	movwf	fsr2h,c
  4970   00099C  CFDE F01C          	movff	postinc2,USBStdFeatureReqHandler@p
  4971   0009A0  CFDD F01D          	movff	postdec2,USBStdFeatureReqHandler@p+1
  4972   0009A4                     
  4973                           ; BSR set to: 4
  4974                           ;usb_device.c: 2794: current_ep_data.Val = ep_data_out[SetupPkt.EPNum].Val;
  4975   0009A4  5124               	movf	36,w,b	;volatile
  4976   0009A6  0B0F               	andlw	15
  4977   0009A8  6E17               	movwf	??_USBStdFeatureReqHandler^0,c
  4978   0009AA  6A18               	clrf	(??_USBStdFeatureReqHandler+1)^0,c
  4979   0009AC  0E76               	movlw	low _ep_data_out
  4980   0009AE  2417               	addwf	??_USBStdFeatureReqHandler^0,w,c
  4981   0009B0  6ED9               	movwf	fsr2l,c
  4982   0009B2  0E00               	movlw	high _ep_data_out
  4983   0009B4  2018               	addwfc	(??_USBStdFeatureReqHandler+1)^0,w,c
  4984   0009B6  6EDA               	movwf	fsr2h,c
  4985   0009B8  50DF               	movf	indf2,w,c
  4986   0009BA  6E1B               	movwf	USBStdFeatureReqHandler@current_ep_data^0,c
  4987                           
  4988                           ;usb_device.c: 2795: }
  4989   0009BC  EFFB  F004         	goto	i2l2976
  4990   0009C0                     i2l2972:
  4991                           
  4992                           ; BSR set to: 4
  4993                           ;usb_device.c: 2796: else;usb_device.c: 2797: {;usb_device.c: 2798: p = (BDT_ENTRY*)pBDT
      +                          EntryIn[SetupPkt.EPNum];
  4994   0009C0  5124               	movf	36,w,b	;volatile
  4995   0009C2  0B0F               	andlw	15
  4996   0009C4  6E17               	movwf	??_USBStdFeatureReqHandler^0,c
  4997   0009C6  5017               	movf	??_USBStdFeatureReqHandler^0,w,c
  4998   0009C8  0D02               	mullw	2
  4999   0009CA  0E6E               	movlw	low _pBDTEntryIn
  5000   0009CC  24F3               	addwf	243,w,c
  5001   0009CE  6ED9               	movwf	fsr2l,c
  5002   0009D0  0E00               	movlw	high _pBDTEntryIn
  5003   0009D2  20F4               	addwfc	prodh,w,c
  5004   0009D4  6EDA               	movwf	fsr2h,c
  5005   0009D6  CFDE F01C          	movff	postinc2,USBStdFeatureReqHandler@p
  5006   0009DA  CFDD F01D          	movff	postdec2,USBStdFeatureReqHandler@p+1
  5007   0009DE                     
  5008                           ; BSR set to: 4
  5009                           ;usb_device.c: 2799: current_ep_data.Val = ep_data_in[SetupPkt.EPNum].Val;
  5010   0009DE  5124               	movf	36,w,b	;volatile
  5011   0009E0  0B0F               	andlw	15
  5012   0009E2  6E17               	movwf	??_USBStdFeatureReqHandler^0,c
  5013   0009E4  6A18               	clrf	(??_USBStdFeatureReqHandler+1)^0,c
  5014   0009E6  0E78               	movlw	low _ep_data_in
  5015   0009E8  2417               	addwf	??_USBStdFeatureReqHandler^0,w,c
  5016   0009EA  6ED9               	movwf	fsr2l,c
  5017   0009EC  0E00               	movlw	high _ep_data_in
  5018   0009EE  2018               	addwfc	(??_USBStdFeatureReqHandler+1)^0,w,c
  5019   0009F0  6EDA               	movwf	fsr2h,c
  5020   0009F2  50DF               	movf	indf2,w,c
  5021   0009F4  6E1B               	movwf	USBStdFeatureReqHandler@current_ep_data^0,c
  5022   0009F6                     i2l2976:
  5023                           
  5024                           ; BSR set to: 4
  5025                           ;usb_device.c: 2800: };usb_device.c: 2806: if(current_ep_data.bits.ping_pong_state == 0)
  5026   0009F6  B01B               	btfsc	USBStdFeatureReqHandler@current_ep_data^0,0,c
  5027   0009F8  EF00  F005         	goto	i2u192_41
  5028   0009FC  EF02  F005         	goto	i2u192_40
  5029   000A00                     i2u192_41:
  5030   000A00  EF0A  F005         	goto	i2l2980
  5031   000A04                     i2u192_40:
  5032   000A04                     
  5033                           ; BSR set to: 4
  5034                           ;usb_device.c: 2807: {;usb_device.c: 2808: p = (BDT_ENTRY*)(((uintptr_t)p) & (~0x0004));
  5035   000A04  0EFB               	movlw	251
  5036   000A06  141C               	andwf	USBStdFeatureReqHandler@p^0,w,c
  5037   000A08  6E1C               	movwf	USBStdFeatureReqHandler@p^0,c
  5038   000A0A  0EFF               	movlw	255
  5039   000A0C  141D               	andwf	(USBStdFeatureReqHandler@p+1)^0,w,c
  5040   000A0E  6E1D               	movwf	(USBStdFeatureReqHandler@p+1)^0,c
  5041                           
  5042                           ;usb_device.c: 2809: }
  5043   000A10  EF0F  F005         	goto	i2l2982
  5044   000A14                     i2l2980:
  5045                           
  5046                           ; BSR set to: 4
  5047                           ;usb_device.c: 2810: else;usb_device.c: 2811: {;usb_device.c: 2812: p = (BDT_ENTRY*)(((u
      +                          intptr_t)p) | 0x0004);
  5048   000A14  0E04               	movlw	4
  5049   000A16  101C               	iorwf	USBStdFeatureReqHandler@p^0,w,c
  5050   000A18  6E1C               	movwf	USBStdFeatureReqHandler@p^0,c
  5051   000A1A  501D               	movf	(USBStdFeatureReqHandler@p+1)^0,w,c
  5052   000A1C  6E1D               	movwf	(USBStdFeatureReqHandler@p+1)^0,c
  5053   000A1E                     i2l2982:
  5054                           
  5055                           ; BSR set to: 4
  5056                           ;usb_device.c: 2813: };usb_device.c: 2818: if(SetupPkt.EPDir == 0)
  5057   000A1E  BF24               	btfsc	36,7,b	;volatile
  5058   000A20  EF14  F005         	goto	i2u193_41
  5059   000A24  EF16  F005         	goto	i2u193_40
  5060   000A28                     i2u193_41:
  5061   000A28  EF27  F005         	goto	i2l2986
  5062   000A2C                     i2u193_40:
  5063   000A2C                     
  5064                           ; BSR set to: 4
  5065                           ;usb_device.c: 2819: {;usb_device.c: 2820: pBDTEntryOut[SetupPkt.EPNum] = (volatile BDT_
      +                          ENTRY *)p;
  5066   000A2C  5124               	movf	36,w,b	;volatile
  5067   000A2E  0B0F               	andlw	15
  5068   000A30  6E17               	movwf	??_USBStdFeatureReqHandler^0,c
  5069   000A32  5017               	movf	??_USBStdFeatureReqHandler^0,w,c
  5070   000A34  0D02               	mullw	2
  5071   000A36  0E72               	movlw	low _pBDTEntryOut
  5072   000A38  24F3               	addwf	243,w,c
  5073   000A3A  6ED9               	movwf	fsr2l,c
  5074   000A3C  0E00               	movlw	high _pBDTEntryOut
  5075   000A3E  20F4               	addwfc	prodh,w,c
  5076   000A40  6EDA               	movwf	fsr2h,c
  5077   000A42  C01C  FFDE         	movff	USBStdFeatureReqHandler@p,postinc2
  5078   000A46  C01D  FFDD         	movff	USBStdFeatureReqHandler@p+1,postdec2
  5079                           
  5080                           ;usb_device.c: 2821: }
  5081   000A4A  EF36  F005         	goto	i2l2988
  5082   000A4E                     i2l2986:
  5083                           
  5084                           ; BSR set to: 4
  5085                           ;usb_device.c: 2822: else;usb_device.c: 2823: {;usb_device.c: 2824: pBDTEntryIn[SetupPkt
      +                          .EPNum] = (volatile BDT_ENTRY *)p;
  5086   000A4E  5124               	movf	36,w,b	;volatile
  5087   000A50  0B0F               	andlw	15
  5088   000A52  6E17               	movwf	??_USBStdFeatureReqHandler^0,c
  5089   000A54  5017               	movf	??_USBStdFeatureReqHandler^0,w,c
  5090   000A56  0D02               	mullw	2
  5091   000A58  0E6E               	movlw	low _pBDTEntryIn
  5092   000A5A  24F3               	addwf	243,w,c
  5093   000A5C  6ED9               	movwf	fsr2l,c
  5094   000A5E  0E00               	movlw	high _pBDTEntryIn
  5095   000A60  20F4               	addwfc	prodh,w,c
  5096   000A62  6EDA               	movwf	fsr2h,c
  5097   000A64  C01C  FFDE         	movff	USBStdFeatureReqHandler@p,postinc2
  5098   000A68  C01D  FFDD         	movff	USBStdFeatureReqHandler@p+1,postdec2
  5099   000A6C                     i2l2988:
  5100                           
  5101                           ; BSR set to: 4
  5102                           ;usb_device.c: 2825: };usb_device.c: 2828: if(SetupPkt.bRequest == 3)
  5103   000A6C  0E03               	movlw	3
  5104   000A6E  1921               	xorwf	33,w,b	;volatile
  5105   000A70  A4D8               	btfss	status,2,c
  5106   000A72  EF3D  F005         	goto	i2u194_41
  5107   000A76  EF3F  F005         	goto	i2u194_40
  5108   000A7A                     i2u194_41:
  5109   000A7A  EF79  F005         	goto	i2l2998
  5110   000A7E                     i2u194_40:
  5111   000A7E                     
  5112                           ; BSR set to: 4
  5113                           ;usb_device.c: 2829: {;usb_device.c: 2830: if(p->STAT.UOWN == 1)
  5114   000A7E  C01C  FFD9         	movff	USBStdFeatureReqHandler@p,fsr2l
  5115   000A82  C01D  FFDA         	movff	USBStdFeatureReqHandler@p+1,fsr2h
  5116   000A86  AEDF               	btfss	indf2,7,c
  5117   000A88  EF48  F005         	goto	i2u195_41
  5118   000A8C  EF4A  F005         	goto	i2u195_40
  5119   000A90                     i2u195_41:
  5120   000A90  EF6B  F005         	goto	i2l393
  5121   000A94                     i2u195_40:
  5122   000A94                     
  5123                           ; BSR set to: 4
  5124                           ;usb_device.c: 2831: {;usb_device.c: 2834: if(SetupPkt.EPDir == 0)
  5125   000A94  BF24               	btfsc	36,7,b	;volatile
  5126   000A96  EF4F  F005         	goto	i2u196_41
  5127   000A9A  EF51  F005         	goto	i2u196_40
  5128   000A9E                     i2u196_41:
  5129   000A9E  EF5F  F005         	goto	i2l2996
  5130   000AA2                     i2u196_40:
  5131   000AA2                     
  5132                           ; BSR set to: 4
  5133                           ;usb_device.c: 2835: {;usb_device.c: 2836: ep_data_out[SetupPkt.EPNum].bits.transfer_ter
      +                          minated = 1;
  5134   000AA2  5124               	movf	36,w,b	;volatile
  5135   000AA4  0B0F               	andlw	15
  5136   000AA6  6E17               	movwf	??_USBStdFeatureReqHandler^0,c
  5137   000AA8  6A18               	clrf	(??_USBStdFeatureReqHandler+1)^0,c
  5138   000AAA  0E76               	movlw	low _ep_data_out
  5139   000AAC  2417               	addwf	??_USBStdFeatureReqHandler^0,w,c
  5140   000AAE  6ED9               	movwf	fsr2l,c
  5141   000AB0  0E00               	movlw	high _ep_data_out
  5142   000AB2  2018               	addwfc	(??_USBStdFeatureReqHandler+1)^0,w,c
  5143   000AB4  6EDA               	movwf	fsr2h,c
  5144   000AB6  0100               	movlb	0	; () banked
  5145   000AB8  82DF               	bsf	indf2,1,c
  5146                           
  5147                           ;usb_device.c: 2837: }
  5148   000ABA  EF6B  F005         	goto	i2l393
  5149   000ABE                     i2l2996:
  5150                           
  5151                           ; BSR set to: 4
  5152                           ;usb_device.c: 2838: else;usb_device.c: 2839: {;usb_device.c: 2840: ep_data_in[SetupPkt.
      +                          EPNum].bits.transfer_terminated = 1;
  5153   000ABE  5124               	movf	36,w,b	;volatile
  5154   000AC0  0B0F               	andlw	15
  5155   000AC2  6E17               	movwf	??_USBStdFeatureReqHandler^0,c
  5156   000AC4  6A18               	clrf	(??_USBStdFeatureReqHandler+1)^0,c
  5157   000AC6  0E78               	movlw	low _ep_data_in
  5158   000AC8  2417               	addwf	??_USBStdFeatureReqHandler^0,w,c
  5159   000ACA  6ED9               	movwf	fsr2l,c
  5160   000ACC  0E00               	movlw	high _ep_data_in
  5161   000ACE  2018               	addwfc	(??_USBStdFeatureReqHandler+1)^0,w,c
  5162   000AD0  6EDA               	movwf	fsr2h,c
  5163   000AD2  0100               	movlb	0	; () banked
  5164   000AD4  82DF               	bsf	indf2,1,c
  5165   000AD6                     i2l393:
  5166                           
  5167                           ;usb_device.c: 2841: };usb_device.c: 2842: };usb_device.c: 2845: p->STAT.Val |= 0x04;
  5168   000AD6  C01C  FFD9         	movff	USBStdFeatureReqHandler@p,fsr2l
  5169   000ADA  C01D  FFDA         	movff	USBStdFeatureReqHandler@p+1,fsr2h
  5170   000ADE  0E00               	movlw	0
  5171   000AE0  84DB               	bsf	plusw2,2,c
  5172                           
  5173                           ;usb_device.c: 2846: p->STAT.Val |= 0x80;
  5174   000AE2  C01C  FFD9         	movff	USBStdFeatureReqHandler@p,fsr2l
  5175   000AE6  C01D  FFDA         	movff	USBStdFeatureReqHandler@p+1,fsr2h
  5176   000AEA  0E00               	movlw	0
  5177   000AEC  8EDB               	bsf	plusw2,7,c
  5178                           
  5179                           ;usb_device.c: 2847: }
  5180   000AEE  EF11  F006         	goto	i2l405
  5181   000AF2                     i2l2998:
  5182                           
  5183                           ; BSR set to: 4
  5184                           ;usb_device.c: 2848: else;usb_device.c: 2849: {;usb_device.c: 2853: p = (BDT_ENTRY*)(((u
      +                          intptr_t)p) ^ 0x0004);
  5185   000AF2  0E04               	movlw	4
  5186   000AF4  181C               	xorwf	USBStdFeatureReqHandler@p^0,w,c
  5187   000AF6  6E1C               	movwf	USBStdFeatureReqHandler@p^0,c
  5188   000AF8  501D               	movf	(USBStdFeatureReqHandler@p+1)^0,w,c
  5189   000AFA  6E1D               	movwf	(USBStdFeatureReqHandler@p+1)^0,c
  5190   000AFC                     
  5191                           ; BSR set to: 4
  5192                           ;usb_device.c: 2855: if(p->STAT.UOWN == 1)
  5193   000AFC  C01C  FFD9         	movff	USBStdFeatureReqHandler@p,fsr2l
  5194   000B00  C01D  FFDA         	movff	USBStdFeatureReqHandler@p+1,fsr2h
  5195   000B04  AEDF               	btfss	indf2,7,c
  5196   000B06  EF87  F005         	goto	i2u197_41
  5197   000B0A  EF89  F005         	goto	i2u197_40
  5198   000B0E                     i2u197_41:
  5199   000B0E  EFA5  F005         	goto	i2l3008
  5200   000B12                     i2u197_40:
  5201   000B12                     
  5202                           ; BSR set to: 4
  5203                           ;usb_device.c: 2856: {;usb_device.c: 2859: p->STAT.Val &= (~0x80);
  5204   000B12  C01C  FFD9         	movff	USBStdFeatureReqHandler@p,fsr2l
  5205   000B16  C01D  FFDA         	movff	USBStdFeatureReqHandler@p+1,fsr2h
  5206   000B1A  0E7F               	movlw	127
  5207   000B1C  16DF               	andwf	indf2,f,c
  5208   000B1E                     
  5209                           ; BSR set to: 4
  5210                           ;usb_device.c: 2860: p->STAT.Val |= 0x40;
  5211   000B1E  C01C  FFD9         	movff	USBStdFeatureReqHandler@p,fsr2l
  5212   000B22  C01D  FFDA         	movff	USBStdFeatureReqHandler@p+1,fsr2h
  5213   000B26  0E00               	movlw	0
  5214   000B28  8CDB               	bsf	plusw2,6,c
  5215   000B2A                     
  5216                           ; BSR set to: 4
  5217                           ;usb_device.c: 2861: USER_USB_CALLBACK_EVENT_HANDLER((USB_EVENT)EVENT_TRANSFER_TERMINATE
      +                          D,p,sizeof(p));
  5218   000B2A  0E00               	movlw	0
  5219   000B2C  6E10               	movwf	(USER_USB_CALLBACK_EVENT_HANDLER@event+1)^0,c
  5220   000B2E  0E05               	movlw	5
  5221   000B30  6E0F               	movwf	USER_USB_CALLBACK_EVENT_HANDLER@event^0,c
  5222   000B32  C01C  F011         	movff	USBStdFeatureReqHandler@p,USER_USB_CALLBACK_EVENT_HANDLER@pdata
  5223   000B36  C01D  F012         	movff	USBStdFeatureReqHandler@p+1,USER_USB_CALLBACK_EVENT_HANDLER@pdata+1
  5224   000B3A  0E00               	movlw	0
  5225   000B3C  6E14               	movwf	(USER_USB_CALLBACK_EVENT_HANDLER@size+1)^0,c
  5226   000B3E  0E02               	movlw	2
  5227   000B40  6E13               	movwf	USER_USB_CALLBACK_EVENT_HANDLER@size^0,c
  5228   000B42  ECE8  F010         	call	_USER_USB_CALLBACK_EVENT_HANDLER	;wreg free
  5229                           
  5230                           ;usb_device.c: 2862: }
  5231   000B46  EFAB  F005         	goto	i2l3010
  5232   000B4A                     i2l3008:
  5233                           
  5234                           ; BSR set to: 4
  5235                           ;usb_device.c: 2863: else;usb_device.c: 2864: {;usb_device.c: 2866: p->STAT.Val |= 0x40;
  5236   000B4A  C01C  FFD9         	movff	USBStdFeatureReqHandler@p,fsr2l
  5237   000B4E  C01D  FFDA         	movff	USBStdFeatureReqHandler@p+1,fsr2h
  5238   000B52  0E00               	movlw	0
  5239   000B54  8CDB               	bsf	plusw2,6,c
  5240   000B56                     i2l3010:
  5241                           
  5242                           ;usb_device.c: 2867: };usb_device.c: 2871: p = (BDT_ENTRY*)(((uintptr_t)p) ^ 0x0004);
  5243   000B56  0E04               	movlw	4
  5244   000B58  181C               	xorwf	USBStdFeatureReqHandler@p^0,w,c
  5245   000B5A  6E1C               	movwf	USBStdFeatureReqHandler@p^0,c
  5246   000B5C  501D               	movf	(USBStdFeatureReqHandler@p+1)^0,w,c
  5247   000B5E  6E1D               	movwf	(USBStdFeatureReqHandler@p+1)^0,c
  5248   000B60                     
  5249                           ;usb_device.c: 2877: if((current_ep_data.bits.transfer_terminated != 0) || (p->STAT.UOWN
      +                           == 1))
  5250   000B60  B21B               	btfsc	USBStdFeatureReqHandler@current_ep_data^0,1,c
  5251   000B62  EFB5  F005         	goto	i2u198_41
  5252   000B66  EFB7  F005         	goto	i2u198_40
  5253   000B6A                     i2u198_41:
  5254   000B6A  EFC2  F005         	goto	i2l401
  5255   000B6E                     i2u198_40:
  5256   000B6E  C01C  FFD9         	movff	USBStdFeatureReqHandler@p,fsr2l
  5257   000B72  C01D  FFDA         	movff	USBStdFeatureReqHandler@p+1,fsr2h
  5258   000B76  AEDF               	btfss	indf2,7,c
  5259   000B78  EFC0  F005         	goto	i2u199_41
  5260   000B7C  EFC2  F005         	goto	i2u199_40
  5261   000B80                     i2u199_41:
  5262   000B80  EFFA  F005         	goto	i2l3024
  5263   000B84                     i2u199_40:
  5264   000B84                     i2l401:
  5265                           
  5266                           ;usb_device.c: 2878: {;usb_device.c: 2879: if(SetupPkt.EPDir == 0)
  5267   000B84  0104               	movlb	4	; () banked
  5268   000B86  BF24               	btfsc	36,7,b	;volatile
  5269   000B88  EFC8  F005         	goto	i2u200_41
  5270   000B8C  EFCA  F005         	goto	i2u200_40
  5271   000B90                     i2u200_41:
  5272   000B90  EFD8  F005         	goto	i2l3018
  5273   000B94                     i2u200_40:
  5274   000B94                     
  5275                           ; BSR set to: 4
  5276                           ;usb_device.c: 2880: {;usb_device.c: 2881: ep_data_out[SetupPkt.EPNum].bits.transfer_ter
      +                          minated = 0;
  5277   000B94  5124               	movf	36,w,b	;volatile
  5278   000B96  0B0F               	andlw	15
  5279   000B98  6E17               	movwf	??_USBStdFeatureReqHandler^0,c
  5280   000B9A  6A18               	clrf	(??_USBStdFeatureReqHandler+1)^0,c
  5281   000B9C  0E76               	movlw	low _ep_data_out
  5282   000B9E  2417               	addwf	??_USBStdFeatureReqHandler^0,w,c
  5283   000BA0  6ED9               	movwf	fsr2l,c
  5284   000BA2  0E00               	movlw	high _ep_data_out
  5285   000BA4  2018               	addwfc	(??_USBStdFeatureReqHandler+1)^0,w,c
  5286   000BA6  6EDA               	movwf	fsr2h,c
  5287   000BA8  0100               	movlb	0	; () banked
  5288   000BAA  92DF               	bcf	indf2,1,c
  5289                           
  5290                           ;usb_device.c: 2882: }
  5291   000BAC  EFE4  F005         	goto	i2l3020
  5292   000BB0                     i2l3018:
  5293                           
  5294                           ; BSR set to: 4
  5295                           ;usb_device.c: 2883: else;usb_device.c: 2884: {;usb_device.c: 2885: ep_data_in[SetupPkt.
      +                          EPNum].bits.transfer_terminated = 0;
  5296   000BB0  5124               	movf	36,w,b	;volatile
  5297   000BB2  0B0F               	andlw	15
  5298   000BB4  6E17               	movwf	??_USBStdFeatureReqHandler^0,c
  5299   000BB6  6A18               	clrf	(??_USBStdFeatureReqHandler+1)^0,c
  5300   000BB8  0E78               	movlw	low _ep_data_in
  5301   000BBA  2417               	addwf	??_USBStdFeatureReqHandler^0,w,c
  5302   000BBC  6ED9               	movwf	fsr2l,c
  5303   000BBE  0E00               	movlw	high _ep_data_in
  5304   000BC0  2018               	addwfc	(??_USBStdFeatureReqHandler+1)^0,w,c
  5305   000BC2  6EDA               	movwf	fsr2h,c
  5306   000BC4  0100               	movlb	0	; () banked
  5307   000BC6  92DF               	bcf	indf2,1,c
  5308   000BC8                     i2l3020:
  5309                           
  5310                           ; BSR set to: 0
  5311                           ;usb_device.c: 2886: };usb_device.c: 2888: p->STAT.Val &= ~(0x80 | 0x40 | 0x04);
  5312   000BC8  C01C  FFD9         	movff	USBStdFeatureReqHandler@p,fsr2l
  5313   000BCC  C01D  FFDA         	movff	USBStdFeatureReqHandler@p+1,fsr2h
  5314   000BD0  0E3B               	movlw	59
  5315   000BD2  16DF               	andwf	indf2,f,c
  5316   000BD4                     
  5317                           ; BSR set to: 0
  5318                           ;usb_device.c: 2891: USER_USB_CALLBACK_EVENT_HANDLER((USB_EVENT)EVENT_TRANSFER_TERMINATE
      +                          D,p,sizeof(p));
  5319   000BD4  0E00               	movlw	0
  5320   000BD6  6E10               	movwf	(USER_USB_CALLBACK_EVENT_HANDLER@event+1)^0,c
  5321   000BD8  0E05               	movlw	5
  5322   000BDA  6E0F               	movwf	USER_USB_CALLBACK_EVENT_HANDLER@event^0,c
  5323   000BDC  C01C  F011         	movff	USBStdFeatureReqHandler@p,USER_USB_CALLBACK_EVENT_HANDLER@pdata
  5324   000BE0  C01D  F012         	movff	USBStdFeatureReqHandler@p+1,USER_USB_CALLBACK_EVENT_HANDLER@pdata+1
  5325   000BE4  0E00               	movlw	0
  5326   000BE6  6E14               	movwf	(USER_USB_CALLBACK_EVENT_HANDLER@size+1)^0,c
  5327   000BE8  0E02               	movlw	2
  5328   000BEA  6E13               	movwf	USER_USB_CALLBACK_EVENT_HANDLER@size^0,c
  5329   000BEC  ECE8  F010         	call	_USER_USB_CALLBACK_EVENT_HANDLER	;wreg free
  5330                           
  5331                           ;usb_device.c: 2892: }
  5332   000BF0  EF00  F006         	goto	i2l3026
  5333   000BF4                     i2l3024:
  5334                           
  5335                           ;usb_device.c: 2893: else;usb_device.c: 2894: {;usb_device.c: 2896: p->STAT.Val &= ~(0x8
      +                          0 | 0x40 | 0x04);
  5336   000BF4  C01C  FFD9         	movff	USBStdFeatureReqHandler@p,fsr2l
  5337   000BF8  C01D  FFDA         	movff	USBStdFeatureReqHandler@p+1,fsr2h
  5338   000BFC  0E3B               	movlw	59
  5339   000BFE  16DF               	andwf	indf2,f,c
  5340   000C00                     i2l3026:
  5341                           
  5342                           ;usb_device.c: 2897: };usb_device.c: 2944: pUEP = (unsigned char*)(&UEP0+SetupPkt.EPNum)
      +                          ;
  5343   000C00  0104               	movlb	4	; () banked
  5344   000C02  5124               	movf	36,w,b	;volatile
  5345   000C04  0B0F               	andlw	15
  5346   000C06  6E17               	movwf	??_USBStdFeatureReqHandler^0,c
  5347   000C08  6A18               	clrf	(??_USBStdFeatureReqHandler+1)^0,c
  5348   000C0A  0E70               	movlw	112
  5349   000C0C  2417               	addwf	??_USBStdFeatureReqHandler^0,w,c
  5350   000C0E  6E19               	movwf	USBStdFeatureReqHandler@pUEP^0,c
  5351   000C10  0E0F               	movlw	15
  5352   000C12  2018               	addwfc	(??_USBStdFeatureReqHandler+1)^0,w,c
  5353   000C14  6E1A               	movwf	(USBStdFeatureReqHandler@pUEP+1)^0,c
  5354   000C16                     
  5355                           ; BSR set to: 4
  5356                           ;usb_device.c: 2948: *pUEP &= ~0x0001;
  5357   000C16  C019  FFD9         	movff	USBStdFeatureReqHandler@pUEP,fsr2l
  5358   000C1A  C01A  FFDA         	movff	USBStdFeatureReqHandler@pUEP+1,fsr2h
  5359   000C1E  0EFE               	movlw	254
  5360   000C20  16DF               	andwf	indf2,f,c
  5361   000C22                     i2l405:
  5362   000C22  0012               	return		;funcret
  5363   000C24                     __end_of_USBStdFeatureReqHandler:
  5364                           	callstack 0
  5365                           
  5366 ;; *************** function _USER_USB_CALLBACK_EVENT_HANDLER *****************
  5367 ;; Defined at:
  5368 ;;		line 49 in file "usb_events.c"
  5369 ;; Parameters:    Size  Location     Type
  5370 ;;  event           2   14[COMRAM] enum E3273
  5371 ;;  pdata           2   16[COMRAM] PTR void 
  5372 ;;		 -> RAM(2047), USTATcopy(1), USBActiveConfiguration(1), NULL(0), 
  5373 ;;		 -> BDT(32), 
  5374 ;;  size            2   18[COMRAM] unsigned int 
  5375 ;; Auto vars:     Size  Location     Type
  5376 ;;		None
  5377 ;; Return value:  Size  Location     Type
  5378 ;;                  1    wreg      unsigned char 
  5379 ;; Registers used:
  5380 ;;		wreg, fsr2l, fsr2h, status,2, status,0, prodl, prodh, cstack
  5381 ;; Tracked objects:
  5382 ;;		On entry : 0/0
  5383 ;;		On exit  : 0/0
  5384 ;;		Unchanged: 0/0
  5385 ;; Data sizes:     COMRAM   BANK0   BANK1   BANK2   BANK3   BANK4   BANK5   BANK6   BANK7
  5386 ;;      Params:         6       0       0       0       0       0       0       0       0
  5387 ;;      Locals:         0       0       0       0       0       0       0       0       0
  5388 ;;      Temps:          2       0       0       0       0       0       0       0       0
  5389 ;;      Totals:         8       0       0       0       0       0       0       0       0
  5390 ;;Total ram usage:        8 bytes
  5391 ;; Hardware stack levels used: 1
  5392 ;; Hardware stack levels required when called: 3
  5393 ;; This function calls:
  5394 ;;		_APP_DeviceCustomHIDInitialize
  5395 ;;		_USBCheckHIDRequest
  5396 ;;		i2_PIC18F4550_Initialize
  5397 ;; This function is called by:
  5398 ;;		_USBDeviceTasks
  5399 ;;		_USBStdSetCfgHandler
  5400 ;;		_USBSuspend
  5401 ;;		_USBWakeFromSuspend
  5402 ;;		_USBCtrlTrfSetupHandler
  5403 ;;		_USBCheckStdRequest
  5404 ;;		_USBStdFeatureReqHandler
  5405 ;; This function uses a non-reentrant model
  5406 ;;
  5407                           
  5408                           	psect	text28
  5409   0021D0                     __ptext28:
  5410                           	callstack 0
  5411   0021D0                     _USER_USB_CALLBACK_EVENT_HANDLER:
  5412                           	callstack 21
  5413   0021D0                     
  5414                           ;usb_events.c: 51: switch((int)event)
  5415   0021D0  EFFC  F010         	goto	i2l2726
  5416   0021D4                     i2l2716:
  5417                           
  5418                           ;usb_events.c: 72: PIC18F4550_Initialize(PIC18F4550_USB_SUSPEND);
  5419   0021D4  0E01               	movlw	1
  5420   0021D6  EC90  F013         	call	i2_PIC18F4550_Initialize
  5421                           
  5422                           ;usb_events.c: 73: break;
  5423   0021DA  EF35  F011         	goto	i2l471
  5424   0021DE                     i2l2718:
  5425                           
  5426                           ;usb_events.c: 83: PIC18F4550_Initialize(PIC18F4550_USB_RESUME);
  5427   0021DE  0E02               	movlw	2
  5428   0021E0  EC90  F013         	call	i2_PIC18F4550_Initialize
  5429                           
  5430                           ;usb_events.c: 84: break;
  5431   0021E4  EF35  F011         	goto	i2l471
  5432   0021E8                     i2l2720:
  5433                           
  5434                           ;usb_events.c: 89: APP_DeviceCustomHIDInitialize();
  5435   0021E8  EC24  F013         	call	_APP_DeviceCustomHIDInitialize	;wreg free
  5436                           
  5437                           ;usb_events.c: 90: break;
  5438   0021EC  EF35  F011         	goto	i2l471
  5439   0021F0                     i2l2722:
  5440                           
  5441                           ;usb_events.c: 98: USBCheckHIDRequest();
  5442   0021F0  ECD6  F007         	call	_USBCheckHIDRequest	;wreg free
  5443                           
  5444                           ;usb_events.c: 99: break;
  5445   0021F4  EF35  F011         	goto	i2l471
  5446   0021F8                     i2l2726:
  5447   0021F8  C00F  F015         	movff	USER_USB_CALLBACK_EVENT_HANDLER@event,??_USER_USB_CALLBACK_EVENT_HANDLER
  5448   0021FC  C010  F016         	movff	USER_USB_CALLBACK_EVENT_HANDLER@event+1,??_USER_USB_CALLBACK_EVENT_HANDLER+1
  5449                           
  5450                           ; Switch on 2 bytes has been partitioned into a top level switch of size 1, and 2 sub-sw
      +                          itches
  5451                           ; Switch size 1, requested type "simple"
  5452                           ; Number of cases is 2, Range of values is 0 to 127
  5453                           ; switch strategies available:
  5454                           ; Name         Instructions Cycles
  5455                           ; simple_byte            7     4 (average)
  5456                           ;	Chosen strategy is simple_byte
  5457   002200  5016               	movf	(??_USER_USB_CALLBACK_EVENT_HANDLER+1)^0,w,c
  5458   002202  0A00               	xorlw	0	; case 0
  5459   002204  B4D8               	btfsc	status,2,c
  5460   002206  EF0B  F011         	goto	i2l3928
  5461   00220A  0A7F               	xorlw	127	; case 127
  5462   00220C  B4D8               	btfsc	status,2,c
  5463   00220E  EF2E  F011         	goto	i2l3930
  5464   002212  EF35  F011         	goto	i2l471
  5465   002216                     i2l3928:
  5466                           
  5467                           ; Switch size 1, requested type "simple"
  5468                           ; Number of cases is 8, Range of values is 1 to 117
  5469                           ; switch strategies available:
  5470                           ; Name         Instructions Cycles
  5471                           ; simple_byte           25    13 (average)
  5472                           ;	Chosen strategy is simple_byte
  5473   002216  5015               	movf	??_USER_USB_CALLBACK_EVENT_HANDLER^0,w,c
  5474   002218  0A01               	xorlw	1	; case 1
  5475   00221A  B4D8               	btfsc	status,2,c
  5476   00221C  EFF4  F010         	goto	i2l2720
  5477   002220  0A03               	xorlw	3	; case 2
  5478   002222  B4D8               	btfsc	status,2,c
  5479   002224  EF35  F011         	goto	i2l471
  5480   002228  0A01               	xorlw	1	; case 3
  5481   00222A  B4D8               	btfsc	status,2,c
  5482   00222C  EFF8  F010         	goto	i2l2722
  5483   002230  0A06               	xorlw	6	; case 5
  5484   002232  B4D8               	btfsc	status,2,c
  5485   002234  EF35  F011         	goto	i2l471
  5486   002238  0A77               	xorlw	119	; case 114
  5487   00223A  B4D8               	btfsc	status,2,c
  5488   00223C  EF35  F011         	goto	i2l471
  5489   002240  0A01               	xorlw	1	; case 115
  5490   002242  B4D8               	btfsc	status,2,c
  5491   002244  EF35  F011         	goto	i2l471
  5492   002248  0A07               	xorlw	7	; case 116
  5493   00224A  B4D8               	btfsc	status,2,c
  5494   00224C  EFEF  F010         	goto	i2l2718
  5495   002250  0A01               	xorlw	1	; case 117
  5496   002252  B4D8               	btfsc	status,2,c
  5497   002254  EFEA  F010         	goto	i2l2716
  5498   002258  EF35  F011         	goto	i2l471
  5499   00225C                     i2l3930:
  5500                           
  5501                           ; Switch size 1, requested type "simple"
  5502                           ; Number of cases is 1, Range of values is 255 to 255
  5503                           ; switch strategies available:
  5504                           ; Name         Instructions Cycles
  5505                           ; simple_byte            4     3 (average)
  5506                           ;	Chosen strategy is simple_byte
  5507   00225C  5015               	movf	??_USER_USB_CALLBACK_EVENT_HANDLER^0,w,c
  5508   00225E  0AFF               	xorlw	255	; case 255
  5509   002260  B4D8               	btfsc	status,2,c
  5510   002262  EF35  F011         	goto	i2l471
  5511   002266  EF35  F011         	goto	i2l471
  5512   00226A                     i2l471:
  5513   00226A  0012               	return		;funcret
  5514   00226C                     __end_of_USER_USB_CALLBACK_EVENT_HANDLER:
  5515                           	callstack 0
  5516                           
  5517 ;; *************** function i2_PIC18F4550_Initialize *****************
  5518 ;; Defined at:
  5519 ;;		line 77 in file "system.c"
  5520 ;; Parameters:    Size  Location     Type
  5521 ;;  state           1    wreg     enum E3059
  5522 ;; Auto vars:     Size  Location     Type
  5523 ;;  state           1    0[COMRAM] enum E3059
  5524 ;; Return value:  Size  Location     Type
  5525 ;;                  1    wreg      void 
  5526 ;; Registers used:
  5527 ;;		wreg, status,2, status,0
  5528 ;; Tracked objects:
  5529 ;;		On entry : 0/0
  5530 ;;		On exit  : 0/0
  5531 ;;		Unchanged: 0/0
  5532 ;; Data sizes:     COMRAM   BANK0   BANK1   BANK2   BANK3   BANK4   BANK5   BANK6   BANK7
  5533 ;;      Params:         0       0       0       0       0       0       0       0       0
  5534 ;;      Locals:         1       0       0       0       0       0       0       0       0
  5535 ;;      Temps:          0       0       0       0       0       0       0       0       0
  5536 ;;      Totals:         1       0       0       0       0       0       0       0       0
  5537 ;;Total ram usage:        1 bytes
  5538 ;; Hardware stack levels used: 1
  5539 ;; This function calls:
  5540 ;;		Nothing
  5541 ;; This function is called by:
  5542 ;;		_USER_USB_CALLBACK_EVENT_HANDLER
  5543 ;; This function uses a non-reentrant model
  5544 ;;
  5545                           
  5546                           	psect	text29
  5547   002720                     __ptext29:
  5548                           	callstack 0
  5549   002720                     i2_PIC18F4550_Initialize:
  5550                           	callstack 23
  5551                           
  5552                           ;incstack = 0
  5553                           ;i2PIC18F4550_Initialize@state stored from wreg
  5554   002720  6E01               	movwf	i2PIC18F4550_Initialize@state^0,c
  5555   002722  5001               	movf	i2PIC18F4550_Initialize@state^0,w,c
  5556                           
  5557                           ; Switch size 1, requested type "simple"
  5558                           ; Number of cases is 3, Range of values is 0 to 2
  5559                           ; switch strategies available:
  5560                           ; Name         Instructions Cycles
  5561                           ; simple_byte           10     6 (average)
  5562                           ;	Chosen strategy is simple_byte
  5563   002724  0A00               	xorlw	0	; case 0
  5564   002726  B4D8               	btfsc	status,2,c
  5565   002728  EFA0  F013         	goto	i2l557
  5566   00272C  0A01               	xorlw	1	; case 1
  5567   00272E  B4D8               	btfsc	status,2,c
  5568   002730  EFA0  F013         	goto	i2l557
  5569   002734  0A03               	xorlw	3	; case 2
  5570   002736  B4D8               	btfsc	status,2,c
  5571   002738  EFA0  F013         	goto	i2l557
  5572   00273C  EFA0  F013         	goto	i2l557
  5573   002740                     i2l557:
  5574   002740  0012               	return		;funcret
  5575   002742                     __end_ofi2_PIC18F4550_Initialize:
  5576                           	callstack 0
  5577                           
  5578 ;; *************** function _USBCheckHIDRequest *****************
  5579 ;; Defined at:
  5580 ;;		line 161 in file "usb_device_hid.c"
  5581 ;; Parameters:    Size  Location     Type
  5582 ;;		None
  5583 ;; Auto vars:     Size  Location     Type
  5584 ;;		None
  5585 ;; Return value:  Size  Location     Type
  5586 ;;                  1    wreg      void 
  5587 ;; Registers used:
  5588 ;;		wreg, status,2, status,0
  5589 ;; Tracked objects:
  5590 ;;		On entry : 0/0
  5591 ;;		On exit  : 0/0
  5592 ;;		Unchanged: 0/0
  5593 ;; Data sizes:     COMRAM   BANK0   BANK1   BANK2   BANK3   BANK4   BANK5   BANK6   BANK7
  5594 ;;      Params:         0       0       0       0       0       0       0       0       0
  5595 ;;      Locals:         0       0       0       0       0       0       0       0       0
  5596 ;;      Temps:          0       0       0       0       0       0       0       0       0
  5597 ;;      Totals:         0       0       0       0       0       0       0       0       0
  5598 ;;Total ram usage:        0 bytes
  5599 ;; Hardware stack levels used: 1
  5600 ;; This function calls:
  5601 ;;		Nothing
  5602 ;; This function is called by:
  5603 ;;		_USER_USB_CALLBACK_EVENT_HANDLER
  5604 ;; This function uses a non-reentrant model
  5605 ;;
  5606                           
  5607                           	psect	text30
  5608   000FAC                     __ptext30:
  5609                           	callstack 0
  5610   000FAC                     _USBCheckHIDRequest:
  5611                           	callstack 23
  5612   000FAC                     
  5613                           ;usb_device_hid.c: 163: if(SetupPkt.Recipient != (0x01)) return;
  5614   000FAC  0104               	movlb	4	; () banked
  5615   000FAE  5120               	movf	32,w,b	;volatile
  5616   000FB0  0B1F               	andlw	31
  5617   000FB2  06E8               	decf	wreg,f,c
  5618   000FB4  B4D8               	btfsc	status,2,c
  5619   000FB6  EFDF  F007         	goto	i2u149_41
  5620   000FBA  EFE1  F007         	goto	i2u149_40
  5621   000FBE                     i2u149_41:
  5622   000FBE  EFE3  F007         	goto	i2l2648
  5623   000FC2                     i2u149_40:
  5624   000FC2  EF7A  F008         	goto	i2l433
  5625   000FC6                     i2l2648:
  5626                           
  5627                           ; BSR set to: 4
  5628                           ;usb_device_hid.c: 164: if(SetupPkt.bIntfID != 0x00) return;
  5629   000FC6  5124               	movf	36,w,b	;volatile
  5630   000FC8  B4D8               	btfsc	status,2,c
  5631   000FCA  EFE9  F007         	goto	i2u150_41
  5632   000FCE  EFEB  F007         	goto	i2u150_40
  5633   000FD2                     i2u150_41:
  5634   000FD2  EFED  F007         	goto	i2l2652
  5635   000FD6                     i2u150_40:
  5636   000FD6  EF7A  F008         	goto	i2l433
  5637   000FDA                     i2l2652:
  5638                           
  5639                           ; BSR set to: 4
  5640                           ;usb_device_hid.c: 171: if(SetupPkt.bRequest == 6)
  5641   000FDA  0E06               	movlw	6
  5642   000FDC  1921               	xorwf	33,w,b	;volatile
  5643   000FDE  A4D8               	btfss	status,2,c
  5644   000FE0  EFF4  F007         	goto	i2u151_41
  5645   000FE4  EFF6  F007         	goto	i2u151_40
  5646   000FE8                     i2u151_41:
  5647   000FE8  EF29  F008         	goto	i2l2674
  5648   000FEC                     i2u151_40:
  5649   000FEC  EF1A  F008         	goto	i2l2672
  5650   000FF0                     i2l2656:
  5651                           
  5652                           ; BSR set to: 4
  5653                           ;usb_device_hid.c: 176: if(USBActiveConfiguration == 1)
  5654   000FF0  044F               	decf	_USBActiveConfiguration^0,w,c	;volatile
  5655   000FF2  A4D8               	btfss	status,2,c
  5656   000FF4  EFFE  F007         	goto	i2u152_41
  5657   000FF8  EF00  F008         	goto	i2u152_40
  5658   000FFC                     i2u152_41:
  5659   000FFC  EF29  F008         	goto	i2l2674
  5660   001000                     i2u152_40:
  5661   001000                     
  5662                           ; BSR set to: 4
  5663                           ;usb_device_hid.c: 177: {;usb_device_hid.c: 178: { inPipes[0].pSrc.bRom = (const uint8_t
      +                          *)&configDescriptor1 + 18; inPipes[0].wCount.Val = sizeof(USB_HID_DSC)+3; inPipes[0].inf
      +                          o.Val = 0x40 | 0x80 | 0x00; };
  5664   001000  0E7D               	movlw	low (_configDescriptor1+18)
  5665   001002  0100               	movlb	0	; () banked
  5666   001004  6F68               	movwf	_inPipes& (0+255),b	;volatile
  5667   001006  0E08               	movlw	high (_configDescriptor1+18)
  5668   001008  6F69               	movwf	(_inPipes+1)& (0+255),b	;volatile
  5669   00100A                     
  5670                           ; BSR set to: 0
  5671   00100A  0E00               	movlw	0
  5672   00100C  6F6D               	movwf	(_inPipes+5)& (0+255),b	;volatile
  5673   00100E  0E09               	movlw	9
  5674   001010  6F6C               	movwf	(_inPipes+4)& (0+255),b	;volatile
  5675   001012                     
  5676                           ; BSR set to: 0
  5677   001012  0EC0               	movlw	192
  5678   001014  6F6B               	movwf	(_inPipes+3)& (0+255),b	;volatile
  5679   001016  EF29  F008         	goto	i2l2674
  5680   00101A                     i2l2664:
  5681                           
  5682                           ; BSR set to: 4
  5683                           ;usb_device_hid.c: 186: {;usb_device_hid.c: 187: { inPipes[0].pSrc.bRom = (const uint8_t
      +                          *)&hid_rpt01; inPipes[0].wCount.Val = 29; inPipes[0].info.Val = 0x40 | 0x80 | 0x00; };
  5684   00101A  0E94               	movlw	low _hid_rpt01
  5685   00101C  0100               	movlb	0	; () banked
  5686   00101E  6F68               	movwf	_inPipes& (0+255),b	;volatile
  5687   001020  0E08               	movlw	high _hid_rpt01
  5688   001022  6F69               	movwf	(_inPipes+1)& (0+255),b	;volatile
  5689   001024                     
  5690                           ; BSR set to: 0
  5691   001024  0E00               	movlw	0
  5692   001026  6F6D               	movwf	(_inPipes+5)& (0+255),b	;volatile
  5693   001028  0E1D               	movlw	29
  5694   00102A  6F6C               	movwf	(_inPipes+4)& (0+255),b	;volatile
  5695   00102C                     
  5696                           ; BSR set to: 0
  5697   00102C  0EC0               	movlw	192
  5698   00102E  6F6B               	movwf	(_inPipes+3)& (0+255),b	;volatile
  5699                           
  5700                           ;usb_device_hid.c: 191: };usb_device_hid.c: 192: break;
  5701   001030  EF29  F008         	goto	i2l2674
  5702   001034                     i2l2672:
  5703                           
  5704                           ; BSR set to: 4
  5705   001034  5123               	movf	35,w,b	;volatile
  5706                           
  5707                           ; Switch size 1, requested type "simple"
  5708                           ; Number of cases is 3, Range of values is 33 to 35
  5709                           ; switch strategies available:
  5710                           ; Name         Instructions Cycles
  5711                           ; simple_byte           10     6 (average)
  5712                           ;	Chosen strategy is simple_byte
  5713   001036  0A21               	xorlw	33	; case 33
  5714   001038  B4D8               	btfsc	status,2,c
  5715   00103A  EFF8  F007         	goto	i2l2656
  5716   00103E  0A03               	xorlw	3	; case 34
  5717   001040  B4D8               	btfsc	status,2,c
  5718   001042  EF0D  F008         	goto	i2l2664
  5719   001046  0A01               	xorlw	1	; case 35
  5720   001048  B4D8               	btfsc	status,2,c
  5721   00104A  EF29  F008         	goto	i2l2674
  5722   00104E  EF29  F008         	goto	i2l2674
  5723   001052                     i2l2674:
  5724                           
  5725                           ;usb_device_hid.c: 207: };usb_device_hid.c: 209: if(SetupPkt.RequestType != (0x20>>5))
  5726   001052  0104               	movlb	4	; () banked
  5727   001054  3920               	swapf	32,w,b	;volatile
  5728   001056  32E8               	rrcf	wreg,f,c
  5729   001058  0B03               	andlw	3
  5730   00105A  06E8               	decf	wreg,f,c
  5731   00105C  B4D8               	btfsc	status,2,c
  5732   00105E  EF33  F008         	goto	i2u153_41
  5733   001062  EF35  F008         	goto	i2u153_40
  5734   001066                     i2u153_41:
  5735   001066  EF5F  F008         	goto	i2l2700
  5736   00106A                     i2u153_40:
  5737   00106A  EF7A  F008         	goto	i2l433
  5738   00106E                     i2l2678:
  5739                           
  5740                           ; BSR set to: 4
  5741                           ;usb_device_hid.c: 227: { inPipes[0].pSrc.bRam = (uint8_t*)&idle_rate; inPipes[0].wCount
      +                          .Val = 1; inPipes[0].info.Val = 0x40 | 0x80 | 0x01; };
  5742   00106E  0E4C               	movlw	low _idle_rate
  5743   001070  0100               	movlb	0	; () banked
  5744   001072  6F68               	movwf	_inPipes& (0+255),b	;volatile
  5745   001074  0E00               	movlw	high _idle_rate
  5746   001076  6F69               	movwf	(_inPipes+1)& (0+255),b	;volatile
  5747   001078                     
  5748                           ; BSR set to: 0
  5749   001078  0E00               	movlw	0
  5750   00107A  6F6D               	movwf	(_inPipes+5)& (0+255),b	;volatile
  5751   00107C  0E01               	movlw	1
  5752   00107E  6F6C               	movwf	(_inPipes+4)& (0+255),b	;volatile
  5753   001080                     
  5754                           ; BSR set to: 0
  5755   001080  0EC1               	movlw	193
  5756   001082  6F6B               	movwf	(_inPipes+3)& (0+255),b	;volatile
  5757                           
  5758                           ;usb_device_hid.c: 231: break;
  5759   001084  EF7A  F008         	goto	i2l433
  5760   001088                     i2l2684:
  5761                           
  5762                           ; BSR set to: 4
  5763                           ;usb_device_hid.c: 233: inPipes[0].info.Val = 0x00 | 0x80;
  5764   001088  0E80               	movlw	128
  5765   00108A  0100               	movlb	0	; () banked
  5766   00108C  6F6B               	movwf	(_inPipes+3)& (0+255),b	;volatile
  5767   00108E                     
  5768                           ; BSR set to: 0
  5769                           ;usb_device_hid.c: 234: idle_rate = SetupPkt.W_Value.byte.HB;
  5770   00108E  C423 F04C          	movff	1059,_idle_rate	;volatile
  5771                           
  5772                           ;usb_device_hid.c: 235: ;;usb_device_hid.c: 236: break;
  5773   001092  EF7A  F008         	goto	i2l433
  5774   001096                     i2l2688:
  5775                           
  5776                           ; BSR set to: 4
  5777                           ;usb_device_hid.c: 238: { inPipes[0].pSrc.bRam = (uint8_t*)&active_protocol; inPipes[0].
      +                          wCount.Val = 1; inPipes[0].info.Val = 0x00 | 0x80 | 0x01; };
  5778   001096  0E4B               	movlw	low _active_protocol
  5779   001098  0100               	movlb	0	; () banked
  5780   00109A  6F68               	movwf	_inPipes& (0+255),b	;volatile
  5781   00109C  0E00               	movlw	high _active_protocol
  5782   00109E  6F69               	movwf	(_inPipes+1)& (0+255),b	;volatile
  5783   0010A0                     
  5784                           ; BSR set to: 0
  5785   0010A0  0E00               	movlw	0
  5786   0010A2  6F6D               	movwf	(_inPipes+5)& (0+255),b	;volatile
  5787   0010A4  0E01               	movlw	1
  5788   0010A6  6F6C               	movwf	(_inPipes+4)& (0+255),b	;volatile
  5789   0010A8                     
  5790                           ; BSR set to: 0
  5791   0010A8  0E81               	movlw	129
  5792   0010AA  6F6B               	movwf	(_inPipes+3)& (0+255),b	;volatile
  5793                           
  5794                           ;usb_device_hid.c: 242: break;
  5795   0010AC  EF7A  F008         	goto	i2l433
  5796   0010B0                     i2l2694:
  5797                           
  5798                           ; BSR set to: 4
  5799                           ;usb_device_hid.c: 244: inPipes[0].info.Val = 0x00 | 0x80;
  5800   0010B0  0E80               	movlw	128
  5801   0010B2  0100               	movlb	0	; () banked
  5802   0010B4  6F6B               	movwf	(_inPipes+3)& (0+255),b	;volatile
  5803   0010B6                     
  5804                           ; BSR set to: 0
  5805                           ;usb_device_hid.c: 245: active_protocol = SetupPkt.W_Value.byte.LB;
  5806   0010B6  C422 F04B          	movff	1058,_active_protocol	;volatile
  5807                           
  5808                           ;usb_device_hid.c: 246: break;
  5809   0010BA  EF7A  F008         	goto	i2l433
  5810   0010BE                     i2l2700:
  5811                           
  5812                           ; BSR set to: 4
  5813   0010BE  5121               	movf	33,w,b	;volatile
  5814                           
  5815                           ; Switch size 1, requested type "simple"
  5816                           ; Number of cases is 6, Range of values is 1 to 11
  5817                           ; switch strategies available:
  5818                           ; Name         Instructions Cycles
  5819                           ; simple_byte           19    10 (average)
  5820                           ;	Chosen strategy is simple_byte
  5821   0010C0  0A01               	xorlw	1	; case 1
  5822   0010C2  B4D8               	btfsc	status,2,c
  5823   0010C4  EF7A  F008         	goto	i2l433
  5824   0010C8  0A03               	xorlw	3	; case 2
  5825   0010CA  B4D8               	btfsc	status,2,c
  5826   0010CC  EF37  F008         	goto	i2l2678
  5827   0010D0  0A01               	xorlw	1	; case 3
  5828   0010D2  B4D8               	btfsc	status,2,c
  5829   0010D4  EF4B  F008         	goto	i2l2688
  5830   0010D8  0A0A               	xorlw	10	; case 9
  5831   0010DA  B4D8               	btfsc	status,2,c
  5832   0010DC  EF7A  F008         	goto	i2l433
  5833   0010E0  0A03               	xorlw	3	; case 10
  5834   0010E2  B4D8               	btfsc	status,2,c
  5835   0010E4  EF44  F008         	goto	i2l2684
  5836   0010E8  0A01               	xorlw	1	; case 11
  5837   0010EA  B4D8               	btfsc	status,2,c
  5838   0010EC  EF58  F008         	goto	i2l2694
  5839   0010F0  EF7A  F008         	goto	i2l433
  5840   0010F4                     i2l433:
  5841   0010F4  0012               	return		;funcret
  5842   0010F6                     __end_of_USBCheckHIDRequest:
  5843                           	callstack 0
  5844                           
  5845 ;; *************** function _APP_DeviceCustomHIDInitialize *****************
  5846 ;; Defined at:
  5847 ;;		line 75 in file "app_device_custom_hid.c"
  5848 ;; Parameters:    Size  Location     Type
  5849 ;;		None
  5850 ;; Auto vars:     Size  Location     Type
  5851 ;;		None
  5852 ;; Return value:  Size  Location     Type
  5853 ;;                  1    wreg      void 
  5854 ;; Registers used:
  5855 ;;		wreg, fsr2l, fsr2h, status,2, status,0, prodl, prodh, cstack
  5856 ;; Tracked objects:
  5857 ;;		On entry : 0/0
  5858 ;;		On exit  : 0/0
  5859 ;;		Unchanged: 0/0
  5860 ;; Data sizes:     COMRAM   BANK0   BANK1   BANK2   BANK3   BANK4   BANK5   BANK6   BANK7
  5861 ;;      Params:         0       0       0       0       0       0       0       0       0
  5862 ;;      Locals:         0       0       0       0       0       0       0       0       0
  5863 ;;      Temps:          0       0       0       0       0       0       0       0       0
  5864 ;;      Totals:         0       0       0       0       0       0       0       0       0
  5865 ;;Total ram usage:        0 bytes
  5866 ;; Hardware stack levels used: 1
  5867 ;; Hardware stack levels required when called: 2
  5868 ;; This function calls:
  5869 ;;		_USBEnableEndpoint
  5870 ;;		i2_USBTransferOnePacket
  5871 ;; This function is called by:
  5872 ;;		_USER_USB_CALLBACK_EVENT_HANDLER
  5873 ;; This function uses a non-reentrant model
  5874 ;;
  5875                           
  5876                           	psect	text31
  5877   002648                     __ptext31:
  5878                           	callstack 0
  5879   002648                     _APP_DeviceCustomHIDInitialize:
  5880                           	callstack 21
  5881   002648                     
  5882                           ;app_device_custom_hid.c: 79: USBInHandle = 0;
  5883   002648  0E00               	movlw	0
  5884   00264A  6E30               	movwf	_USBInHandle^0,c
  5885   00264C  0E00               	movlw	0
  5886   00264E  6E31               	movwf	(_USBInHandle+1)^0,c
  5887   002650                     
  5888                           ;app_device_custom_hid.c: 82: USBEnableEndpoint(1, 0x02|0x04|0x10|0x08);
  5889   002650  0E1E               	movlw	30
  5890   002652  6E0B               	movwf	USBEnableEndpoint@options^0,c
  5891   002654  0E01               	movlw	1
  5892   002656  EC6A  F012         	call	_USBEnableEndpoint
  5893   00265A                     
  5894                           ;app_device_custom_hid.c: 85: USBOutHandle = (volatile void*)USBTransferOnePacket(1,0,(u
      +                          int8_t*)&ReceivedDataBuffer[0],64);
  5895   00265A  0E00               	movlw	0
  5896   00265C  6E01               	movwf	i2USBTransferOnePacket@dir^0,c
  5897   00265E  0E00               	movlw	0
  5898   002660  6E02               	movwf	i2USBTransferOnePacket@data^0,c
  5899   002662  0E05               	movlw	5
  5900   002664  6E03               	movwf	(i2USBTransferOnePacket@data+1)^0,c
  5901   002666  0E40               	movlw	64
  5902   002668  6E04               	movwf	i2USBTransferOnePacket@len^0,c
  5903   00266A  0E01               	movlw	1
  5904   00266C  EC9D  F00B         	call	i2_USBTransferOnePacket
  5905   002670  C001  F032         	movff	?i2_USBTransferOnePacket,_USBOutHandle
  5906   002674  C002  F033         	movff	?i2_USBTransferOnePacket+1,_USBOutHandle+1
  5907   002678  0012               	return		;funcret
  5908   00267A                     __end_of_APP_DeviceCustomHIDInitialize:
  5909                           	callstack 0
  5910                           
  5911 ;; *************** function i2_USBTransferOnePacket *****************
  5912 ;; Defined at:
  5913 ;;		line 997 in file "usb_device.c"
  5914 ;; Parameters:    Size  Location     Type
  5915 ;;  ep              1    wreg     unsigned char 
  5916 ;;  dir             1    0[COMRAM] unsigned char 
  5917 ;;  data            2    1[COMRAM] PTR unsigned char 
  5918 ;;		 -> ReceivedDataBuffer(64), 
  5919 ;;  len             1    3[COMRAM] unsigned char 
  5920 ;; Auto vars:     Size  Location     Type
  5921 ;;  ep              1    8[COMRAM] unsigned char 
  5922 ;;  handle          2    9[COMRAM] PTR volatile struct __BD
  5923 ;;		 -> RAM(2047), NULL(0), BDT(32), 
  5924 ;; Return value:  Size  Location     Type
  5925 ;;                  2    0[COMRAM] PTR void 
  5926 ;; Registers used:
  5927 ;;		wreg, fsr2l, fsr2h, status,2, status,0, prodl, prodh
  5928 ;; Tracked objects:
  5929 ;;		On entry : 0/0
  5930 ;;		On exit  : 0/0
  5931 ;;		Unchanged: 0/0
  5932 ;; Data sizes:     COMRAM   BANK0   BANK1   BANK2   BANK3   BANK4   BANK5   BANK6   BANK7
  5933 ;;      Params:         4       0       0       0       0       0       0       0       0
  5934 ;;      Locals:         3       0       0       0       0       0       0       0       0
  5935 ;;      Temps:          4       0       0       0       0       0       0       0       0
  5936 ;;      Totals:        11       0       0       0       0       0       0       0       0
  5937 ;;Total ram usage:       11 bytes
  5938 ;; Hardware stack levels used: 1
  5939 ;; This function calls:
  5940 ;;		Nothing
  5941 ;; This function is called by:
  5942 ;;		_APP_DeviceCustomHIDInitialize
  5943 ;; This function uses a non-reentrant model
  5944 ;;
  5945                           
  5946                           	psect	text32
  5947   00173A                     __ptext32:
  5948                           	callstack 0
  5949   00173A                     i2_USBTransferOnePacket:
  5950                           	callstack 22
  5951                           
  5952                           ;incstack = 0
  5953                           ;i2USBTransferOnePacket@ep stored from wreg
  5954   00173A  6E09               	movwf	i2USBTransferOnePacket@ep^0,c
  5955   00173C                     
  5956                           ;usb_device.c: 999: volatile BDT_ENTRY* handle;;usb_device.c: 1002: if(dir != 0)
  5957   00173C  5001               	movf	i2USBTransferOnePacket@dir^0,w,c
  5958   00173E  B4D8               	btfsc	status,2,c
  5959   001740  EFA4  F00B         	goto	i2u146_41
  5960   001744  EFA6  F00B         	goto	i2u146_40
  5961   001748                     i2u146_41:
  5962   001748  EFB4  F00B         	goto	i2l2618
  5963   00174C                     i2u146_40:
  5964   00174C                     
  5965                           ;usb_device.c: 1003: {;usb_device.c: 1005: handle = pBDTEntryIn[ep];
  5966   00174C  5009               	movf	i2USBTransferOnePacket@ep^0,w,c
  5967   00174E  0D02               	mullw	2
  5968   001750  0E6E               	movlw	low _pBDTEntryIn
  5969   001752  24F3               	addwf	243,w,c
  5970   001754  6ED9               	movwf	fsr2l,c
  5971   001756  0E00               	movlw	high _pBDTEntryIn
  5972   001758  20F4               	addwfc	prodh,w,c
  5973   00175A  6EDA               	movwf	fsr2h,c
  5974   00175C  CFDE F00A          	movff	postinc2,i2USBTransferOnePacket@handle
  5975   001760  CFDD F00B          	movff	postdec2,i2USBTransferOnePacket@handle+1
  5976                           
  5977                           ;usb_device.c: 1006: }
  5978   001764  EFC0  F00B         	goto	i2l2620
  5979   001768                     i2l2618:
  5980                           
  5981                           ;usb_device.c: 1007: else;usb_device.c: 1008: {;usb_device.c: 1010: handle = pBDTEntryOu
      +                          t[ep];
  5982   001768  5009               	movf	i2USBTransferOnePacket@ep^0,w,c
  5983   00176A  0D02               	mullw	2
  5984   00176C  0E72               	movlw	low _pBDTEntryOut
  5985   00176E  24F3               	addwf	243,w,c
  5986   001770  6ED9               	movwf	fsr2l,c
  5987   001772  0E00               	movlw	high _pBDTEntryOut
  5988   001774  20F4               	addwfc	prodh,w,c
  5989   001776  6EDA               	movwf	fsr2h,c
  5990   001778  CFDE F00A          	movff	postinc2,i2USBTransferOnePacket@handle
  5991   00177C  CFDD F00B          	movff	postdec2,i2USBTransferOnePacket@handle+1
  5992   001780                     i2l2620:
  5993                           
  5994                           ;usb_device.c: 1011: };usb_device.c: 1015: if(handle == 0)
  5995   001780  500A               	movf	i2USBTransferOnePacket@handle^0,w,c
  5996   001782  100B               	iorwf	(i2USBTransferOnePacket@handle+1)^0,w,c
  5997   001784  A4D8               	btfss	status,2,c
  5998   001786  EFC7  F00B         	goto	i2u147_41
  5999   00178A  EFC9  F00B         	goto	i2u147_40
  6000   00178E                     i2u147_41:
  6001   00178E  EFCF  F00B         	goto	i2l2626
  6002   001792                     i2u147_40:
  6003   001792                     
  6004                           ;usb_device.c: 1016: {;usb_device.c: 1017: return 0;
  6005   001792  0E00               	movlw	0
  6006   001794  6E01               	movwf	?i2_USBTransferOnePacket^0,c
  6007   001796  0E00               	movlw	0
  6008   001798  6E02               	movwf	(?i2_USBTransferOnePacket+1)^0,c
  6009   00179A  EF3B  F00C         	goto	i2l197
  6010   00179E                     i2l2626:
  6011                           
  6012                           ;usb_device.c: 1018: };usb_device.c: 1031: handle->ADR = ((uint16_t)(data));
  6013   00179E  EE20 F002          	lfsr	2,2
  6014   0017A2  500A               	movf	i2USBTransferOnePacket@handle^0,w,c
  6015   0017A4  26D9               	addwf	fsr2l,f,c
  6016   0017A6  500B               	movf	(i2USBTransferOnePacket@handle+1)^0,w,c
  6017   0017A8  22DA               	addwfc	fsr2h,f,c
  6018   0017AA  C002  FFDE         	movff	i2USBTransferOnePacket@data,postinc2
  6019   0017AE  C003  FFDD         	movff	i2USBTransferOnePacket@data+1,postdec2
  6020                           
  6021                           ;usb_device.c: 1032: handle->CNT = len;
  6022   0017B2  EE20 F001          	lfsr	2,1
  6023   0017B6  500A               	movf	i2USBTransferOnePacket@handle^0,w,c
  6024   0017B8  26D9               	addwf	fsr2l,f,c
  6025   0017BA  500B               	movf	(i2USBTransferOnePacket@handle+1)^0,w,c
  6026   0017BC  22DA               	addwfc	fsr2h,f,c
  6027   0017BE  C004  FFDF         	movff	i2USBTransferOnePacket@len,indf2
  6028   0017C2                     
  6029                           ;usb_device.c: 1033: handle->STAT.Val &= 0x40;
  6030   0017C2  C00A  FFD9         	movff	i2USBTransferOnePacket@handle,fsr2l
  6031   0017C6  C00B  FFDA         	movff	i2USBTransferOnePacket@handle+1,fsr2h
  6032   0017CA  0E40               	movlw	64
  6033   0017CC  16DF               	andwf	indf2,f,c
  6034   0017CE                     
  6035                           ;usb_device.c: 1034: handle->STAT.Val |= (0x08 & 0x08);
  6036   0017CE  C00A  FFD9         	movff	i2USBTransferOnePacket@handle,fsr2l
  6037   0017D2  C00B  FFDA         	movff	i2USBTransferOnePacket@handle+1,fsr2h
  6038   0017D6  0E00               	movlw	0
  6039   0017D8  86DB               	bsf	plusw2,3,c
  6040   0017DA                     
  6041                           ;usb_device.c: 1035: handle->STAT.Val |= 0x80;
  6042   0017DA  C00A  FFD9         	movff	i2USBTransferOnePacket@handle,fsr2l
  6043   0017DE  C00B  FFDA         	movff	i2USBTransferOnePacket@handle+1,fsr2h
  6044   0017E2  0E00               	movlw	0
  6045   0017E4  8EDB               	bsf	plusw2,7,c
  6046   0017E6                     
  6047                           ;usb_device.c: 1038: if(dir != 0)
  6048   0017E6  5001               	movf	i2USBTransferOnePacket@dir^0,w,c
  6049   0017E8  B4D8               	btfsc	status,2,c
  6050   0017EA  EFF9  F00B         	goto	i2u148_41
  6051   0017EE  EFFB  F00B         	goto	i2u148_40
  6052   0017F2                     i2u148_41:
  6053   0017F2  EF1A  F00C         	goto	i2l2638
  6054   0017F6                     i2u148_40:
  6055   0017F6                     
  6056                           ;usb_device.c: 1039: {;usb_device.c: 1041: pBDTEntryIn[ep] = (BDT_ENTRY*)(((uintptr_t)pB
      +                          DTEntryIn[ep]) ^ 0x0004);
  6057   0017F6  5009               	movf	i2USBTransferOnePacket@ep^0,w,c
  6058   0017F8  0D02               	mullw	2
  6059   0017FA  0E6E               	movlw	low _pBDTEntryIn
  6060   0017FC  24F3               	addwf	243,w,c
  6061   0017FE  6ED9               	movwf	fsr2l,c
  6062   001800  0E00               	movlw	high _pBDTEntryIn
  6063   001802  20F4               	addwfc	prodh,w,c
  6064   001804  6EDA               	movwf	fsr2h,c
  6065   001806  CFDE F005          	movff	postinc2,??i2_USBTransferOnePacket
  6066   00180A  CFDD F006          	movff	postdec2,??i2_USBTransferOnePacket+1
  6067   00180E  0E04               	movlw	4
  6068   001810  1805               	xorwf	??i2_USBTransferOnePacket^0,w,c
  6069   001812  6E07               	movwf	(??i2_USBTransferOnePacket+2)^0,c
  6070   001814  5006               	movf	(??i2_USBTransferOnePacket+1)^0,w,c
  6071   001816  6E08               	movwf	(??i2_USBTransferOnePacket+3)^0,c
  6072   001818  5009               	movf	i2USBTransferOnePacket@ep^0,w,c
  6073   00181A  0D02               	mullw	2
  6074   00181C  0E6E               	movlw	low _pBDTEntryIn
  6075   00181E  24F3               	addwf	243,w,c
  6076   001820  6ED9               	movwf	fsr2l,c
  6077   001822  0E00               	movlw	high _pBDTEntryIn
  6078   001824  20F4               	addwfc	prodh,w,c
  6079   001826  6EDA               	movwf	fsr2h,c
  6080   001828  C007  FFDE         	movff	??i2_USBTransferOnePacket+2,postinc2
  6081   00182C  C008  FFDD         	movff	??i2_USBTransferOnePacket+3,postdec2
  6082                           
  6083                           ;usb_device.c: 1042: }
  6084   001830  EF37  F00C         	goto	i2l2640
  6085   001834                     i2l2638:
  6086                           
  6087                           ;usb_device.c: 1043: else;usb_device.c: 1044: {;usb_device.c: 1046: pBDTEntryOut[ep] = (
      +                          BDT_ENTRY*)(((uintptr_t)pBDTEntryOut[ep]) ^ 0x0004);
  6088   001834  5009               	movf	i2USBTransferOnePacket@ep^0,w,c
  6089   001836  0D02               	mullw	2
  6090   001838  0E72               	movlw	low _pBDTEntryOut
  6091   00183A  24F3               	addwf	243,w,c
  6092   00183C  6ED9               	movwf	fsr2l,c
  6093   00183E  0E00               	movlw	high _pBDTEntryOut
  6094   001840  20F4               	addwfc	prodh,w,c
  6095   001842  6EDA               	movwf	fsr2h,c
  6096   001844  CFDE F005          	movff	postinc2,??i2_USBTransferOnePacket
  6097   001848  CFDD F006          	movff	postdec2,??i2_USBTransferOnePacket+1
  6098   00184C  0E04               	movlw	4
  6099   00184E  1805               	xorwf	??i2_USBTransferOnePacket^0,w,c
  6100   001850  6E07               	movwf	(??i2_USBTransferOnePacket+2)^0,c
  6101   001852  5006               	movf	(??i2_USBTransferOnePacket+1)^0,w,c
  6102   001854  6E08               	movwf	(??i2_USBTransferOnePacket+3)^0,c
  6103   001856  5009               	movf	i2USBTransferOnePacket@ep^0,w,c
  6104   001858  0D02               	mullw	2
  6105   00185A  0E72               	movlw	low _pBDTEntryOut
  6106   00185C  24F3               	addwf	243,w,c
  6107   00185E  6ED9               	movwf	fsr2l,c
  6108   001860  0E00               	movlw	high _pBDTEntryOut
  6109   001862  20F4               	addwfc	prodh,w,c
  6110   001864  6EDA               	movwf	fsr2h,c
  6111   001866  C007  FFDE         	movff	??i2_USBTransferOnePacket+2,postinc2
  6112   00186A  C008  FFDD         	movff	??i2_USBTransferOnePacket+3,postdec2
  6113   00186E                     i2l2640:
  6114                           
  6115                           ;usb_device.c: 1047: };usb_device.c: 1048: return (void*)handle;
  6116   00186E  C00A  F001         	movff	i2USBTransferOnePacket@handle,?i2_USBTransferOnePacket
  6117   001872  C00B  F002         	movff	i2USBTransferOnePacket@handle+1,?i2_USBTransferOnePacket+1
  6118   001876                     i2l197:
  6119   001876  0012               	return		;funcret
  6120   001878                     __end_ofi2_USBTransferOnePacket:
  6121                           	callstack 0
  6122                           
  6123 ;; *************** function _USBEnableEndpoint *****************
  6124 ;; Defined at:
  6125 ;;		line 880 in file "usb_device.c"
  6126 ;; Parameters:    Size  Location     Type
  6127 ;;  ep              1    wreg     unsigned char 
  6128 ;;  options         1   10[COMRAM] unsigned char 
  6129 ;; Auto vars:     Size  Location     Type
  6130 ;;  ep              1   13[COMRAM] unsigned char 
  6131 ;;  p               2   11[COMRAM] PTR unsigned char 
  6132 ;;		 -> UEP0(1), 
  6133 ;; Return value:  Size  Location     Type
  6134 ;;                  1    wreg      void 
  6135 ;; Registers used:
  6136 ;;		wreg, fsr2l, fsr2h, status,2, status,0, prodl, prodh, cstack
  6137 ;; Tracked objects:
  6138 ;;		On entry : 0/0
  6139 ;;		On exit  : 0/0
  6140 ;;		Unchanged: 0/0
  6141 ;; Data sizes:     COMRAM   BANK0   BANK1   BANK2   BANK3   BANK4   BANK5   BANK6   BANK7
  6142 ;;      Params:         1       0       0       0       0       0       0       0       0
  6143 ;;      Locals:         3       0       0       0       0       0       0       0       0
  6144 ;;      Temps:          0       0       0       0       0       0       0       0       0
  6145 ;;      Totals:         4       0       0       0       0       0       0       0       0
  6146 ;;Total ram usage:        4 bytes
  6147 ;; Hardware stack levels used: 1
  6148 ;; Hardware stack levels required when called: 1
  6149 ;; This function calls:
  6150 ;;		_USBConfigureEndpoint
  6151 ;; This function is called by:
  6152 ;;		_APP_DeviceCustomHIDInitialize
  6153 ;; This function uses a non-reentrant model
  6154 ;;
  6155                           
  6156                           	psect	text33
  6157   0024D4                     __ptext33:
  6158                           	callstack 0
  6159   0024D4                     _USBEnableEndpoint:
  6160                           	callstack 21
  6161                           
  6162                           ;incstack = 0
  6163                           ;USBEnableEndpoint@ep stored from wreg
  6164   0024D4  6E0E               	movwf	USBEnableEndpoint@ep^0,c
  6165   0024D6                     
  6166                           ;usb_device.c: 882: unsigned char* p;;usb_device.c: 886: if(options & 0x04)
  6167   0024D6  A40B               	btfss	USBEnableEndpoint@options^0,2,c
  6168   0024D8  EF70  F012         	goto	i2u144_41
  6169   0024DC  EF72  F012         	goto	i2u144_40
  6170   0024E0                     i2u144_41:
  6171   0024E0  EF77  F012         	goto	i2l2606
  6172   0024E4                     i2u144_40:
  6173   0024E4                     
  6174                           ;usb_device.c: 887: {;usb_device.c: 888: USBConfigureEndpoint(ep, 0);
  6175   0024E4  0E00               	movlw	0
  6176   0024E6  6E01               	movwf	USBConfigureEndpoint@direction^0,c
  6177   0024E8  500E               	movf	USBEnableEndpoint@ep^0,w,c
  6178   0024EA  EC90  F010         	call	_USBConfigureEndpoint
  6179   0024EE                     i2l2606:
  6180                           
  6181                           ;usb_device.c: 889: };usb_device.c: 890: if(options & 0x02)
  6182   0024EE  A20B               	btfss	USBEnableEndpoint@options^0,1,c
  6183   0024F0  EF7C  F012         	goto	i2u145_41
  6184   0024F4  EF7E  F012         	goto	i2u145_40
  6185   0024F8                     i2u145_41:
  6186   0024F8  EF83  F012         	goto	i2l2610
  6187   0024FC                     i2u145_40:
  6188   0024FC                     
  6189                           ;usb_device.c: 891: {;usb_device.c: 892: USBConfigureEndpoint(ep, 1);
  6190   0024FC  0E01               	movlw	1
  6191   0024FE  6E01               	movwf	USBConfigureEndpoint@direction^0,c
  6192   002500  500E               	movf	USBEnableEndpoint@ep^0,w,c
  6193   002502  EC90  F010         	call	_USBConfigureEndpoint
  6194   002506                     i2l2610:
  6195                           
  6196                           ;usb_device.c: 893: };usb_device.c: 901: p = (unsigned char*)(&UEP0+ep);
  6197   002506  0E70               	movlw	112
  6198   002508  240E               	addwf	USBEnableEndpoint@ep^0,w,c
  6199   00250A  6E0C               	movwf	USBEnableEndpoint@p^0,c
  6200   00250C  6A0D               	clrf	(USBEnableEndpoint@p+1)^0,c
  6201   00250E  0E0F               	movlw	15
  6202   002510  220D               	addwfc	(USBEnableEndpoint@p+1)^0,f,c
  6203   002512                     
  6204                           ;usb_device.c: 903: *p = options;
  6205   002512  C00C  FFD9         	movff	USBEnableEndpoint@p,fsr2l
  6206   002516  C00D  FFDA         	movff	USBEnableEndpoint@p+1,fsr2h
  6207   00251A  C00B  FFDF         	movff	USBEnableEndpoint@options,indf2
  6208   00251E  0012               	return		;funcret
  6209   002520                     __end_of_USBEnableEndpoint:
  6210                           	callstack 0
  6211                           
  6212 ;; *************** function _USBConfigureEndpoint *****************
  6213 ;; Defined at:
  6214 ;;		line 1545 in file "usb_device.c"
  6215 ;; Parameters:    Size  Location     Type
  6216 ;;  EPNum           1    wreg     unsigned char 
  6217 ;;  direction       1    0[COMRAM] unsigned char 
  6218 ;; Auto vars:     Size  Location     Type
  6219 ;;  EPNum           1    7[COMRAM] unsigned char 
  6220 ;;  handle          2    8[COMRAM] PTR volatile struct __BD
  6221 ;;		 -> BDT(32), 
  6222 ;; Return value:  Size  Location     Type
  6223 ;;                  1    wreg      void 
  6224 ;; Registers used:
  6225 ;;		wreg, fsr2l, fsr2h, status,2, status,0, prodl, prodh
  6226 ;; Tracked objects:
  6227 ;;		On entry : 0/0
  6228 ;;		On exit  : 0/0
  6229 ;;		Unchanged: 0/0
  6230 ;; Data sizes:     COMRAM   BANK0   BANK1   BANK2   BANK3   BANK4   BANK5   BANK6   BANK7
  6231 ;;      Params:         1       0       0       0       0       0       0       0       0
  6232 ;;      Locals:         3       0       0       0       0       0       0       0       0
  6233 ;;      Temps:          6       0       0       0       0       0       0       0       0
  6234 ;;      Totals:        10       0       0       0       0       0       0       0       0
  6235 ;;Total ram usage:       10 bytes
  6236 ;; Hardware stack levels used: 1
  6237 ;; This function calls:
  6238 ;;		Nothing
  6239 ;; This function is called by:
  6240 ;;		_USBEnableEndpoint
  6241 ;; This function uses a non-reentrant model
  6242 ;;
  6243                           
  6244                           	psect	text34
  6245   002120                     __ptext34:
  6246                           	callstack 0
  6247   002120                     _USBConfigureEndpoint:
  6248                           	callstack 21
  6249                           
  6250                           ;incstack = 0
  6251                           ;USBConfigureEndpoint@EPNum stored from wreg
  6252   002120  6E08               	movwf	USBConfigureEndpoint@EPNum^0,c
  6253   002122                     
  6254                           ;usb_device.c: 1547: volatile BDT_ENTRY* handle;;usb_device.c: 1551: handle = (volatile 
      +                          BDT_ENTRY*)&BDT[0];
  6255   002122  0E00               	movlw	0
  6256   002124  6E09               	movwf	USBConfigureEndpoint@handle^0,c
  6257   002126  0E04               	movlw	4
  6258   002128  6E0A               	movwf	(USBConfigureEndpoint@handle+1)^0,c
  6259   00212A                     
  6260                           ;usb_device.c: 1552: handle += (4*EPNum+2*direction+0u);
  6261   00212A  5001               	movf	USBConfigureEndpoint@direction^0,w,c
  6262   00212C  6E02               	movwf	??_USBConfigureEndpoint^0,c
  6263   00212E  6A03               	clrf	(??_USBConfigureEndpoint+1)^0,c
  6264   002130  90D8               	bcf	status,0,c
  6265   002132  3602               	rlcf	??_USBConfigureEndpoint^0,f,c
  6266   002134  3603               	rlcf	(??_USBConfigureEndpoint+1)^0,f,c
  6267   002136  5008               	movf	USBConfigureEndpoint@EPNum^0,w,c
  6268   002138  6E04               	movwf	(??_USBConfigureEndpoint+2)^0,c
  6269   00213A  6A05               	clrf	(??_USBConfigureEndpoint+3)^0,c
  6270   00213C  90D8               	bcf	status,0,c
  6271   00213E  3604               	rlcf	(??_USBConfigureEndpoint+2)^0,f,c
  6272   002140  3605               	rlcf	(??_USBConfigureEndpoint+3)^0,f,c
  6273   002142  90D8               	bcf	status,0,c
  6274   002144  3604               	rlcf	(??_USBConfigureEndpoint+2)^0,f,c
  6275   002146  3605               	rlcf	(??_USBConfigureEndpoint+3)^0,f,c
  6276   002148  5002               	movf	??_USBConfigureEndpoint^0,w,c
  6277   00214A  2404               	addwf	(??_USBConfigureEndpoint+2)^0,w,c
  6278   00214C  6E06               	movwf	(??_USBConfigureEndpoint+4)^0,c
  6279   00214E  5003               	movf	(??_USBConfigureEndpoint+1)^0,w,c
  6280   002150  2005               	addwfc	(??_USBConfigureEndpoint+3)^0,w,c
  6281   002152  6E07               	movwf	(??_USBConfigureEndpoint+5)^0,c
  6282   002154  90D8               	bcf	status,0,c
  6283   002156  3606               	rlcf	(??_USBConfigureEndpoint+4)^0,f,c
  6284   002158  3607               	rlcf	(??_USBConfigureEndpoint+5)^0,f,c
  6285   00215A  90D8               	bcf	status,0,c
  6286   00215C  3606               	rlcf	(??_USBConfigureEndpoint+4)^0,f,c
  6287   00215E  3607               	rlcf	(??_USBConfigureEndpoint+5)^0,f,c
  6288   002160  5006               	movf	(??_USBConfigureEndpoint+4)^0,w,c
  6289   002162  2609               	addwf	USBConfigureEndpoint@handle^0,f,c
  6290   002164  5007               	movf	(??_USBConfigureEndpoint+5)^0,w,c
  6291   002166  220A               	addwfc	(USBConfigureEndpoint@handle+1)^0,f,c
  6292   002168                     
  6293                           ;usb_device.c: 1554: handle->STAT.UOWN = 0;
  6294   002168  C009  FFD9         	movff	USBConfigureEndpoint@handle,fsr2l
  6295   00216C  C00A  FFDA         	movff	USBConfigureEndpoint@handle+1,fsr2h
  6296   002170  9EDF               	bcf	indf2,7,c
  6297   002172                     
  6298                           ;usb_device.c: 1559: if(direction == 0)
  6299   002172  5001               	movf	USBConfigureEndpoint@direction^0,w,c
  6300   002174  A4D8               	btfss	status,2,c
  6301   002176  EFBF  F010         	goto	i2u143_41
  6302   00217A  EFC1  F010         	goto	i2u143_40
  6303   00217E                     i2u143_41:
  6304   00217E  EFCF  F010         	goto	i2l2596
  6305   002182                     i2u143_40:
  6306   002182                     
  6307                           ;usb_device.c: 1560: {;usb_device.c: 1561: pBDTEntryOut[EPNum] = handle;
  6308   002182  5008               	movf	USBConfigureEndpoint@EPNum^0,w,c
  6309   002184  0D02               	mullw	2
  6310   002186  0E72               	movlw	low _pBDTEntryOut
  6311   002188  24F3               	addwf	243,w,c
  6312   00218A  6ED9               	movwf	fsr2l,c
  6313   00218C  0E00               	movlw	high _pBDTEntryOut
  6314   00218E  20F4               	addwfc	prodh,w,c
  6315   002190  6EDA               	movwf	fsr2h,c
  6316   002192  C009  FFDE         	movff	USBConfigureEndpoint@handle,postinc2
  6317   002196  C00A  FFDD         	movff	USBConfigureEndpoint@handle+1,postdec2
  6318                           
  6319                           ;usb_device.c: 1562: }
  6320   00219A  EFDB  F010         	goto	i2l2598
  6321   00219E                     i2l2596:
  6322                           
  6323                           ;usb_device.c: 1563: else;usb_device.c: 1564: {;usb_device.c: 1565: pBDTEntryIn[EPNum] =
      +                           handle;
  6324   00219E  5008               	movf	USBConfigureEndpoint@EPNum^0,w,c
  6325   0021A0  0D02               	mullw	2
  6326   0021A2  0E6E               	movlw	low _pBDTEntryIn
  6327   0021A4  24F3               	addwf	243,w,c
  6328   0021A6  6ED9               	movwf	fsr2l,c
  6329   0021A8  0E00               	movlw	high _pBDTEntryIn
  6330   0021AA  20F4               	addwfc	prodh,w,c
  6331   0021AC  6EDA               	movwf	fsr2h,c
  6332   0021AE  C009  FFDE         	movff	USBConfigureEndpoint@handle,postinc2
  6333   0021B2  C00A  FFDD         	movff	USBConfigureEndpoint@handle+1,postdec2
  6334   0021B6                     i2l2598:
  6335                           
  6336                           ;usb_device.c: 1566: };usb_device.c: 1569: handle->STAT.DTS = 0;
  6337   0021B6  C009  FFD9         	movff	USBConfigureEndpoint@handle,fsr2l
  6338   0021BA  C00A  FFDA         	movff	USBConfigureEndpoint@handle+1,fsr2h
  6339   0021BE  9CDF               	bcf	indf2,6,c
  6340   0021C0                     
  6341                           ;usb_device.c: 1570: (handle+1)->STAT.DTS = 1;
  6342   0021C0  EE20 F004          	lfsr	2,4
  6343   0021C4  5009               	movf	USBConfigureEndpoint@handle^0,w,c
  6344   0021C6  26D9               	addwf	fsr2l,f,c
  6345   0021C8  500A               	movf	(USBConfigureEndpoint@handle+1)^0,w,c
  6346   0021CA  22DA               	addwfc	fsr2h,f,c
  6347   0021CC  8CDF               	bsf	indf2,6,c
  6348   0021CE  0012               	return		;funcret
  6349   0021D0                     __end_of_USBConfigureEndpoint:
  6350                           	callstack 0
  6351                           
  6352 ;; *************** function _USBCtrlTrfOutHandler *****************
  6353 ;; Defined at:
  6354 ;;		line 2543 in file "usb_device.c"
  6355 ;; Parameters:    Size  Location     Type
  6356 ;;		None
  6357 ;; Auto vars:     Size  Location     Type
  6358 ;;		None
  6359 ;; Return value:  Size  Location     Type
  6360 ;;                  1    wreg      void 
  6361 ;; Registers used:
  6362 ;;		wreg, fsr1l, fsr1h, fsr2l, fsr2h, status,2, status,0, cstack
  6363 ;; Tracked objects:
  6364 ;;		On entry : 0/0
  6365 ;;		On exit  : 0/0
  6366 ;;		Unchanged: 0/0
  6367 ;; Data sizes:     COMRAM   BANK0   BANK1   BANK2   BANK3   BANK4   BANK5   BANK6   BANK7
  6368 ;;      Params:         0       0       0       0       0       0       0       0       0
  6369 ;;      Locals:         0       0       0       0       0       0       0       0       0
  6370 ;;      Temps:          0       0       0       0       0       0       0       0       0
  6371 ;;      Totals:         0       0       0       0       0       0       0       0       0
  6372 ;;Total ram usage:        0 bytes
  6373 ;; Hardware stack levels used: 1
  6374 ;; Hardware stack levels required when called: 2
  6375 ;; This function calls:
  6376 ;;		_USBCtrlTrfRxService
  6377 ;; This function is called by:
  6378 ;;		_USBCtrlEPService
  6379 ;; This function uses a non-reentrant model
  6380 ;;
  6381                           
  6382                           	psect	text35
  6383   0022FC                     __ptext35:
  6384                           	callstack 0
  6385   0022FC                     _USBCtrlTrfOutHandler:
  6386                           	callstack 21
  6387   0022FC                     
  6388                           ;usb_device.c: 2545: if(controlTransferState == 2)
  6389   0022FC  0E02               	movlw	2
  6390   0022FE  1848               	xorwf	_controlTransferState^0,w,c	;volatile
  6391   002300  A4D8               	btfss	status,2,c
  6392   002302  EF85  F011         	goto	i2u215_41
  6393   002306  EF87  F011         	goto	i2u215_40
  6394   00230A                     i2u215_41:
  6395   00230A  EF8B  F011         	goto	i2l3204
  6396   00230E                     i2u215_40:
  6397   00230E                     
  6398                           ;usb_device.c: 2546: {;usb_device.c: 2547: USBCtrlTrfRxService();
  6399   00230E  EC7B  F008         	call	_USBCtrlTrfRxService	;wreg free
  6400                           
  6401                           ;usb_device.c: 2548: }
  6402   002312  EFB7  F011         	goto	i2l347
  6403   002316                     i2l3204:
  6404                           
  6405                           ;usb_device.c: 2549: else;usb_device.c: 2550: {;usb_device.c: 2553: controlTransferState
      +                           = 0;
  6406   002316  0E00               	movlw	0
  6407   002318  6E48               	movwf	_controlTransferState^0,c	;volatile
  6408                           
  6409                           ;usb_device.c: 2560: if(BothEP0OutUOWNsSet == 0)
  6410   00231A  5044               	movf	_BothEP0OutUOWNsSet^0,w,c	;volatile
  6411   00231C  A4D8               	btfss	status,2,c
  6412   00231E  EF93  F011         	goto	i2u216_41
  6413   002322  EF95  F011         	goto	i2u216_40
  6414   002326                     i2u216_41:
  6415   002326  EFB5  F011         	goto	i2l3212
  6416   00232A                     i2u216_40:
  6417   00232A                     
  6418                           ;usb_device.c: 2561: {;usb_device.c: 2562: pBDTEntryEP0OutNext->CNT = 8;
  6419   00232A  EE20 F001          	lfsr	2,1
  6420   00232E  5036               	movf	_pBDTEntryEP0OutNext^0,w,c
  6421   002330  26D9               	addwf	fsr2l,f,c
  6422   002332  5037               	movf	(_pBDTEntryEP0OutNext+1)^0,w,c
  6423   002334  22DA               	addwfc	fsr2h,f,c
  6424   002336  0E08               	movlw	8
  6425   002338  6EDF               	movwf	indf2,c
  6426                           
  6427                           ;usb_device.c: 2563: pBDTEntryEP0OutNext->ADR = ((uint16_t)(&SetupPkt));
  6428   00233A  EE20 F002          	lfsr	2,2
  6429   00233E  5036               	movf	_pBDTEntryEP0OutNext^0,w,c
  6430   002340  26D9               	addwf	fsr2l,f,c
  6431   002342  5037               	movf	(_pBDTEntryEP0OutNext+1)^0,w,c
  6432   002344  22DA               	addwfc	fsr2h,f,c
  6433   002346  0E20               	movlw	32
  6434   002348  6EDE               	movwf	postinc2,c
  6435   00234A  0E04               	movlw	4
  6436   00234C  6EDD               	movwf	postdec2,c
  6437   00234E                     
  6438                           ;usb_device.c: 2564: pBDTEntryEP0OutNext->STAT.Val = 0x00|(0x08 & 0x08)|0x04;
  6439   00234E  C036  FFD9         	movff	_pBDTEntryEP0OutNext,fsr2l
  6440   002352  C037  FFDA         	movff	_pBDTEntryEP0OutNext+1,fsr2h
  6441   002356  0E0C               	movlw	12
  6442   002358  6EDF               	movwf	indf2,c
  6443   00235A                     
  6444                           ;usb_device.c: 2565: pBDTEntryEP0OutNext->STAT.Val |= 0x80;
  6445   00235A  C036  FFD9         	movff	_pBDTEntryEP0OutNext,fsr2l
  6446   00235E  C037  FFDA         	movff	_pBDTEntryEP0OutNext+1,fsr2h
  6447   002362  0E00               	movlw	0
  6448   002364  8EDB               	bsf	plusw2,7,c
  6449                           
  6450                           ;usb_device.c: 2566: }
  6451   002366  EFB7  F011         	goto	i2l347
  6452   00236A                     i2l3212:
  6453                           
  6454                           ;usb_device.c: 2567: else;usb_device.c: 2568: {;usb_device.c: 2569: BothEP0OutUOWNsSet =
      +                           0;
  6455   00236A  0E00               	movlw	0
  6456   00236C  6E44               	movwf	_BothEP0OutUOWNsSet^0,c	;volatile
  6457   00236E                     i2l347:
  6458   00236E  0012               	return		;funcret
  6459   002370                     __end_of_USBCtrlTrfOutHandler:
  6460                           	callstack 0
  6461                           
  6462 ;; *************** function _USBCtrlTrfRxService *****************
  6463 ;; Defined at:
  6464 ;;		line 1854 in file "usb_device.c"
  6465 ;; Parameters:    Size  Location     Type
  6466 ;;		None
  6467 ;; Auto vars:     Size  Location     Type
  6468 ;;  byteToRead      1    1[COMRAM] unsigned char 
  6469 ;;  i               1    0[COMRAM] unsigned char 
  6470 ;; Return value:  Size  Location     Type
  6471 ;;                  1    wreg      void 
  6472 ;; Registers used:
  6473 ;;		wreg, fsr1l, fsr1h, fsr2l, fsr2h, status,2, status,0, cstack
  6474 ;; Tracked objects:
  6475 ;;		On entry : 0/0
  6476 ;;		On exit  : 0/0
  6477 ;;		Unchanged: 0/0
  6478 ;; Data sizes:     COMRAM   BANK0   BANK1   BANK2   BANK3   BANK4   BANK5   BANK6   BANK7
  6479 ;;      Params:         0       0       0       0       0       0       0       0       0
  6480 ;;      Locals:         2       0       0       0       0       0       0       0       0
  6481 ;;      Temps:          0       0       0       0       0       0       0       0       0
  6482 ;;      Totals:         2       0       0       0       0       0       0       0       0
  6483 ;;Total ram usage:        2 bytes
  6484 ;; Hardware stack levels used: 1
  6485 ;; Hardware stack levels required when called: 1
  6486 ;; This function calls:
  6487 ;;		_USBCtrlEPAllowStatusStage
  6488 ;; This function is called by:
  6489 ;;		_USBCtrlTrfOutHandler
  6490 ;; This function uses a non-reentrant model
  6491 ;;
  6492                           
  6493                           	psect	text36
  6494   0010F6                     __ptext36:
  6495                           	callstack 0
  6496   0010F6                     _USBCtrlTrfRxService:
  6497                           	callstack 21
  6498   0010F6                     
  6499                           ;usb_device.c: 1856: uint8_t byteToRead;;usb_device.c: 1857: uint8_t i;;usb_device.c: 18
      +                          61: byteToRead = pBDTEntryEP0OutCurrent->CNT;
  6500   0010F6  EE20 F001          	lfsr	2,1
  6501   0010FA  5038               	movf	_pBDTEntryEP0OutCurrent^0,w,c
  6502   0010FC  26D9               	addwf	fsr2l,f,c
  6503   0010FE  5039               	movf	(_pBDTEntryEP0OutCurrent+1)^0,w,c
  6504   001100  22DA               	addwfc	fsr2h,f,c
  6505   001102  50DF               	movf	indf2,w,c
  6506   001104  6E02               	movwf	USBCtrlTrfRxService@byteToRead^0,c
  6507   001106                     
  6508                           ;usb_device.c: 1867: if(byteToRead > outPipes[0].wCount.Val)
  6509   001106  5002               	movf	USBCtrlTrfRxService@byteToRead^0,w,c
  6510   001108  0100               	movlb	0	; () banked
  6511   00110A  5D64               	subwf	(_outPipes+4)& (0+255),w,b	;volatile
  6512   00110C  0E00               	movlw	0
  6513   00110E  5965               	subwfb	(_outPipes+5)& (0+255),w,b	;volatile
  6514   001110  B0D8               	btfsc	status,0,c
  6515   001112  EF8D  F008         	goto	i2u208_41
  6516   001116  EF8F  F008         	goto	i2u208_40
  6517   00111A                     i2u208_41:
  6518   00111A  EF91  F008         	goto	i2l3086
  6519   00111E                     i2u208_40:
  6520   00111E                     
  6521                           ; BSR set to: 0
  6522                           ;usb_device.c: 1868: {;usb_device.c: 1869: byteToRead = outPipes[0].wCount.Val;
  6523   00111E  C064  F002         	movff	_outPipes+4,USBCtrlTrfRxService@byteToRead	;volatile
  6524   001122                     i2l3086:
  6525                           
  6526                           ; BSR set to: 0
  6527                           ;usb_device.c: 1870: };usb_device.c: 1872: outPipes[0].wCount.Val -= byteToRead;
  6528   001122  5002               	movf	USBCtrlTrfRxService@byteToRead^0,w,c
  6529   001124  5F64               	subwf	(_outPipes+4)& (0+255),f,b	;volatile
  6530   001126  0E00               	movlw	0
  6531   001128  5B65               	subwfb	(_outPipes+5)& (0+255),f,b	;volatile
  6532   00112A                     
  6533                           ; BSR set to: 0
  6534                           ;usb_device.c: 1876: for(i=0;i<byteToRead;i++)
  6535   00112A  0E00               	movlw	0
  6536   00112C  6E01               	movwf	USBCtrlTrfRxService@i^0,c
  6537   00112E  EFA8  F008         	goto	i2l3096
  6538   001132                     i2l3090:
  6539                           
  6540                           ; BSR set to: 0
  6541                           ;usb_device.c: 1877: {;usb_device.c: 1878: *outPipes[0].pDst.bRam++ = CtrlTrfData[i];
  6542   001132  0E28               	movlw	40
  6543   001134  2401               	addwf	USBCtrlTrfRxService@i^0,w,c
  6544   001136  6ED9               	movwf	fsr2l,c
  6545   001138  6ADA               	clrf	fsr2h,c
  6546   00113A  0E04               	movlw	4
  6547   00113C  22DA               	addwfc	fsr2h,f,c
  6548   00113E  C060  FFE1         	movff	_outPipes,fsr1l	;volatile
  6549   001142  C061  FFE2         	movff	_outPipes+1,fsr1h	;volatile
  6550   001146  CFDF FFE7          	movff	indf2,indf1
  6551   00114A                     
  6552                           ; BSR set to: 0
  6553   00114A  4B60               	infsnz	_outPipes& (0+255),f,b	;volatile
  6554   00114C  2B61               	incf	(_outPipes+1)& (0+255),f,b	;volatile
  6555   00114E                     
  6556                           ; BSR set to: 0
  6557   00114E  2A01               	incf	USBCtrlTrfRxService@i^0,f,c
  6558   001150                     i2l3096:
  6559                           
  6560                           ; BSR set to: 0
  6561   001150  5002               	movf	USBCtrlTrfRxService@byteToRead^0,w,c
  6562   001152  5C01               	subwf	USBCtrlTrfRxService@i^0,w,c
  6563   001154  A0D8               	btfss	status,0,c
  6564   001156  EFAF  F008         	goto	i2u209_41
  6565   00115A  EFB1  F008         	goto	i2u209_40
  6566   00115E                     i2u209_41:
  6567   00115E  EF99  F008         	goto	i2l3090
  6568   001162                     i2u209_40:
  6569   001162                     
  6570                           ; BSR set to: 0
  6571                           ;usb_device.c: 1879: };usb_device.c: 1883: if(outPipes[0].wCount.Val > 0)
  6572   001162  5164               	movf	(_outPipes+4)& (0+255),w,b	;volatile
  6573   001164  1165               	iorwf	(_outPipes+5)& (0+255),w,b	;volatile
  6574   001166  B4D8               	btfsc	status,2,c
  6575   001168  EFB8  F008         	goto	i2u210_41
  6576   00116C  EFBA  F008         	goto	i2u210_40
  6577   001170                     i2u210_41:
  6578   001170  EFF3  F008         	goto	i2l3112
  6579   001174                     i2u210_40:
  6580   001174                     
  6581                           ; BSR set to: 0
  6582                           ;usb_device.c: 1884: {;usb_device.c: 1885: pBDTEntryEP0OutNext->CNT = 8;
  6583   001174  EE20 F001          	lfsr	2,1
  6584   001178  5036               	movf	_pBDTEntryEP0OutNext^0,w,c
  6585   00117A  26D9               	addwf	fsr2l,f,c
  6586   00117C  5037               	movf	(_pBDTEntryEP0OutNext+1)^0,w,c
  6587   00117E  22DA               	addwfc	fsr2h,f,c
  6588   001180  0E08               	movlw	8
  6589   001182  6EDF               	movwf	indf2,c
  6590                           
  6591                           ;usb_device.c: 1886: pBDTEntryEP0OutNext->ADR = ((uint16_t)(&CtrlTrfData));
  6592   001184  EE20 F002          	lfsr	2,2
  6593   001188  5036               	movf	_pBDTEntryEP0OutNext^0,w,c
  6594   00118A  26D9               	addwf	fsr2l,f,c
  6595   00118C  5037               	movf	(_pBDTEntryEP0OutNext+1)^0,w,c
  6596   00118E  22DA               	addwfc	fsr2h,f,c
  6597   001190  0E28               	movlw	40
  6598   001192  6EDE               	movwf	postinc2,c
  6599   001194  0E04               	movlw	4
  6600   001196  6EDD               	movwf	postdec2,c
  6601   001198                     
  6602                           ; BSR set to: 0
  6603                           ;usb_device.c: 1887: if(pBDTEntryEP0OutCurrent->STAT.DTS == 0)
  6604   001198  C038  FFD9         	movff	_pBDTEntryEP0OutCurrent,fsr2l
  6605   00119C  C039  FFDA         	movff	_pBDTEntryEP0OutCurrent+1,fsr2h
  6606   0011A0  BCDF               	btfsc	indf2,6,c
  6607   0011A2  EFD5  F008         	goto	i2u211_41
  6608   0011A6  EFD7  F008         	goto	i2u211_40
  6609   0011AA                     i2u211_41:
  6610   0011AA  EFE5  F008         	goto	i2l3108
  6611   0011AE                     i2u211_40:
  6612   0011AE                     
  6613                           ; BSR set to: 0
  6614                           ;usb_device.c: 1888: {;usb_device.c: 1889: pBDTEntryEP0OutNext->STAT.Val = 0x40|(0x08 & 
      +                          0x08);
  6615   0011AE  C036  FFD9         	movff	_pBDTEntryEP0OutNext,fsr2l
  6616   0011B2  C037  FFDA         	movff	_pBDTEntryEP0OutNext+1,fsr2h
  6617   0011B6  0E48               	movlw	72
  6618   0011B8  6EDF               	movwf	indf2,c
  6619   0011BA                     
  6620                           ; BSR set to: 0
  6621                           ;usb_device.c: 1890: pBDTEntryEP0OutNext->STAT.Val |= 0x80;
  6622   0011BA  C036  FFD9         	movff	_pBDTEntryEP0OutNext,fsr2l
  6623   0011BE  C037  FFDA         	movff	_pBDTEntryEP0OutNext+1,fsr2h
  6624   0011C2  0E00               	movlw	0
  6625   0011C4  8EDB               	bsf	plusw2,7,c
  6626                           
  6627                           ;usb_device.c: 1891: }
  6628   0011C6  EF1C  F009         	goto	i2l279
  6629   0011CA                     i2l3108:
  6630                           
  6631                           ; BSR set to: 0
  6632                           ;usb_device.c: 1892: else;usb_device.c: 1893: {;usb_device.c: 1894: pBDTEntryEP0OutNext-
      +                          >STAT.Val = 0x00|(0x08 & 0x08);
  6633   0011CA  C036  FFD9         	movff	_pBDTEntryEP0OutNext,fsr2l
  6634   0011CE  C037  FFDA         	movff	_pBDTEntryEP0OutNext+1,fsr2h
  6635   0011D2  0E08               	movlw	8
  6636   0011D4  6EDF               	movwf	indf2,c
  6637   0011D6                     
  6638                           ; BSR set to: 0
  6639                           ;usb_device.c: 1895: pBDTEntryEP0OutNext->STAT.Val |= 0x80;
  6640   0011D6  C036  FFD9         	movff	_pBDTEntryEP0OutNext,fsr2l
  6641   0011DA  C037  FFDA         	movff	_pBDTEntryEP0OutNext+1,fsr2h
  6642   0011DE  0E00               	movlw	0
  6643   0011E0  8EDB               	bsf	plusw2,7,c
  6644   0011E2  EF1C  F009         	goto	i2l279
  6645   0011E6                     i2l3112:
  6646                           
  6647                           ; BSR set to: 0
  6648                           ;usb_device.c: 1898: else;usb_device.c: 1899: {;usb_device.c: 1903: pBDTEntryEP0OutNext-
      +                          >CNT = 8;
  6649   0011E6  EE20 F001          	lfsr	2,1
  6650   0011EA  5036               	movf	_pBDTEntryEP0OutNext^0,w,c
  6651   0011EC  26D9               	addwf	fsr2l,f,c
  6652   0011EE  5037               	movf	(_pBDTEntryEP0OutNext+1)^0,w,c
  6653   0011F0  22DA               	addwfc	fsr2h,f,c
  6654   0011F2  0E08               	movlw	8
  6655   0011F4  6EDF               	movwf	indf2,c
  6656                           
  6657                           ;usb_device.c: 1904: pBDTEntryEP0OutNext->ADR = ((uint16_t)(&SetupPkt));
  6658   0011F6  EE20 F002          	lfsr	2,2
  6659   0011FA  5036               	movf	_pBDTEntryEP0OutNext^0,w,c
  6660   0011FC  26D9               	addwf	fsr2l,f,c
  6661   0011FE  5037               	movf	(_pBDTEntryEP0OutNext+1)^0,w,c
  6662   001200  22DA               	addwfc	fsr2h,f,c
  6663   001202  0E20               	movlw	32
  6664   001204  6EDE               	movwf	postinc2,c
  6665   001206  0E04               	movlw	4
  6666   001208  6EDD               	movwf	postdec2,c
  6667   00120A                     
  6668                           ; BSR set to: 0
  6669                           ;usb_device.c: 1908: pBDTEntryEP0OutNext->STAT.Val = 0x04;
  6670   00120A  C036  FFD9         	movff	_pBDTEntryEP0OutNext,fsr2l
  6671   00120E  C037  FFDA         	movff	_pBDTEntryEP0OutNext+1,fsr2h
  6672   001212  0E04               	movlw	4
  6673   001214  6EDF               	movwf	indf2,c
  6674   001216                     
  6675                           ; BSR set to: 0
  6676                           ;usb_device.c: 1909: pBDTEntryEP0OutNext->STAT.Val |= 0x80;
  6677   001216  C036  FFD9         	movff	_pBDTEntryEP0OutNext,fsr2l
  6678   00121A  C037  FFDA         	movff	_pBDTEntryEP0OutNext+1,fsr2h
  6679   00121E  0E00               	movlw	0
  6680   001220  8EDB               	bsf	plusw2,7,c
  6681   001222                     
  6682                           ; BSR set to: 0
  6683                           ;usb_device.c: 1928: };usb_device.c: 1929: outPipes[0].info.bits.busy = 0;
  6684   001222  9F63               	bcf	(_outPipes+3)& (0+255),7,b	;volatile
  6685   001224                     
  6686                           ; BSR set to: 0
  6687                           ;usb_device.c: 1943: if(USBDeferStatusStagePacket == 0)
  6688   001224  5042               	movf	_USBDeferStatusStagePacket^0,w,c	;volatile
  6689   001226  A4D8               	btfss	status,2,c
  6690   001228  EF18  F009         	goto	i2u212_41
  6691   00122C  EF1A  F009         	goto	i2u212_40
  6692   001230                     i2u212_41:
  6693   001230  EF1C  F009         	goto	i2l279
  6694   001234                     i2u212_40:
  6695   001234                     
  6696                           ; BSR set to: 0
  6697                           ;usb_device.c: 1944: {;usb_device.c: 1945: USBCtrlEPAllowStatusStage();
  6698   001234  ECEF  F00E         	call	_USBCtrlEPAllowStatusStage	;wreg free
  6699   001238                     i2l279:
  6700   001238  0012               	return		;funcret
  6701   00123A                     __end_of_USBCtrlTrfRxService:
  6702                           	callstack 0
  6703                           
  6704 ;; *************** function _USBCtrlEPAllowStatusStage *****************
  6705 ;; Defined at:
  6706 ;;		line 1418 in file "usb_device.c"
  6707 ;; Parameters:    Size  Location     Type
  6708 ;;		None
  6709 ;; Auto vars:     Size  Location     Type
  6710 ;;		None
  6711 ;; Return value:  Size  Location     Type
  6712 ;;                  1    wreg      void 
  6713 ;; Registers used:
  6714 ;;		wreg, fsr2l, fsr2h, status,2, status,0
  6715 ;; Tracked objects:
  6716 ;;		On entry : 0/0
  6717 ;;		On exit  : 0/0
  6718 ;;		Unchanged: 0/0
  6719 ;; Data sizes:     COMRAM   BANK0   BANK1   BANK2   BANK3   BANK4   BANK5   BANK6   BANK7
  6720 ;;      Params:         0       0       0       0       0       0       0       0       0
  6721 ;;      Locals:         0       0       0       0       0       0       0       0       0
  6722 ;;      Temps:          0       0       0       0       0       0       0       0       0
  6723 ;;      Totals:         0       0       0       0       0       0       0       0       0
  6724 ;;Total ram usage:        0 bytes
  6725 ;; Hardware stack levels used: 1
  6726 ;; This function calls:
  6727 ;;		Nothing
  6728 ;; This function is called by:
  6729 ;;		_USBDeviceTasks
  6730 ;;		_USBCtrlEPServiceComplete
  6731 ;;		_USBCtrlTrfRxService
  6732 ;; This function uses a non-reentrant model
  6733 ;;
  6734                           
  6735                           	psect	text37
  6736   001DDE                     __ptext37:
  6737                           	callstack 0
  6738   001DDE                     _USBCtrlEPAllowStatusStage:
  6739                           	callstack 21
  6740   001DDE                     
  6741                           ;usb_device.c: 1425: if(USBStatusStageEnabledFlag1 == 0)
  6742   001DDE  5041               	movf	_USBStatusStageEnabledFlag1^0,w,c	;volatile
  6743   001DE0  A4D8               	btfss	status,2,c
  6744   001DE2  EFF5  F00E         	goto	i2u163_41
  6745   001DE6  EFF7  F00E         	goto	i2u163_40
  6746   001DEA                     i2u163_41:
  6747   001DEA  EF66  F00F         	goto	i2l227
  6748   001DEE                     i2u163_40:
  6749   001DEE                     
  6750                           ;usb_device.c: 1426: {;usb_device.c: 1427: USBStatusStageEnabledFlag1 = 1;
  6751   001DEE  0E01               	movlw	1
  6752   001DF0  6E41               	movwf	_USBStatusStageEnabledFlag1^0,c	;volatile
  6753                           
  6754                           ;usb_device.c: 1428: if(USBStatusStageEnabledFlag2 == 0)
  6755   001DF2  5040               	movf	_USBStatusStageEnabledFlag2^0,w,c	;volatile
  6756   001DF4  A4D8               	btfss	status,2,c
  6757   001DF6  EFFF  F00E         	goto	i2u164_41
  6758   001DFA  EF01  F00F         	goto	i2u164_40
  6759   001DFE                     i2u164_41:
  6760   001DFE  EF66  F00F         	goto	i2l227
  6761   001E02                     i2u164_40:
  6762   001E02                     
  6763                           ;usb_device.c: 1429: {;usb_device.c: 1430: USBStatusStageEnabledFlag2 = 1;
  6764   001E02  0E01               	movlw	1
  6765   001E04  6E40               	movwf	_USBStatusStageEnabledFlag2^0,c	;volatile
  6766   001E06                     
  6767                           ;usb_device.c: 1434: if(controlTransferState == 2)
  6768   001E06  0E02               	movlw	2
  6769   001E08  1848               	xorwf	_controlTransferState^0,w,c	;volatile
  6770   001E0A  A4D8               	btfss	status,2,c
  6771   001E0C  EF0A  F00F         	goto	i2u165_41
  6772   001E10  EF0C  F00F         	goto	i2u165_40
  6773   001E14                     i2u165_41:
  6774   001E14  EF22  F00F         	goto	i2l2802
  6775   001E18                     i2u165_40:
  6776   001E18                     
  6777                           ;usb_device.c: 1435: {;usb_device.c: 1436: pBDTEntryIn[0]->CNT = 0;
  6778   001E18  0100               	movlb	0	; () banked
  6779   001E1A  EE20 F001          	lfsr	2,1
  6780   001E1E  516E               	movf	_pBDTEntryIn& (0+255),w,b
  6781   001E20  26D9               	addwf	fsr2l,f,c
  6782   001E22  516F               	movf	(_pBDTEntryIn+1)& (0+255),w,b
  6783   001E24  22DA               	addwfc	fsr2h,f,c
  6784   001E26  6ADF               	clrf	indf2,c
  6785   001E28                     
  6786                           ; BSR set to: 0
  6787                           ;usb_device.c: 1437: pBDTEntryIn[0]->STAT.Val = 0x40|(0x08 & 0x08);
  6788   001E28  C06E  FFD9         	movff	_pBDTEntryIn,fsr2l
  6789   001E2C  C06F  FFDA         	movff	_pBDTEntryIn+1,fsr2h
  6790   001E30  0E48               	movlw	72
  6791   001E32  6EDF               	movwf	indf2,c
  6792   001E34                     
  6793                           ; BSR set to: 0
  6794                           ;usb_device.c: 1438: pBDTEntryIn[0]->STAT.Val |= 0x80;
  6795   001E34  C06E  FFD9         	movff	_pBDTEntryIn,fsr2l
  6796   001E38  C06F  FFDA         	movff	_pBDTEntryIn+1,fsr2h
  6797   001E3C  0E00               	movlw	0
  6798   001E3E  8EDB               	bsf	plusw2,7,c
  6799                           
  6800                           ;usb_device.c: 1439: }
  6801   001E40  EF66  F00F         	goto	i2l227
  6802   001E44                     i2l2802:
  6803                           
  6804                           ;usb_device.c: 1440: else if(controlTransferState == 1)
  6805   001E44  0448               	decf	_controlTransferState^0,w,c	;volatile
  6806   001E46  A4D8               	btfss	status,2,c
  6807   001E48  EF28  F00F         	goto	i2u166_41
  6808   001E4C  EF2A  F00F         	goto	i2u166_40
  6809   001E50                     i2u166_41:
  6810   001E50  EF66  F00F         	goto	i2l223
  6811   001E54                     i2u166_40:
  6812   001E54                     
  6813                           ;usb_device.c: 1441: {;usb_device.c: 1442: BothEP0OutUOWNsSet = 0;
  6814   001E54  0E00               	movlw	0
  6815   001E56  6E44               	movwf	_BothEP0OutUOWNsSet^0,c	;volatile
  6816   001E58                     
  6817                           ;usb_device.c: 1447: pBDTEntryEP0OutCurrent->CNT = 8;
  6818   001E58  EE20 F001          	lfsr	2,1
  6819   001E5C  5038               	movf	_pBDTEntryEP0OutCurrent^0,w,c
  6820   001E5E  26D9               	addwf	fsr2l,f,c
  6821   001E60  5039               	movf	(_pBDTEntryEP0OutCurrent+1)^0,w,c
  6822   001E62  22DA               	addwfc	fsr2h,f,c
  6823   001E64  0E08               	movlw	8
  6824   001E66  6EDF               	movwf	indf2,c
  6825   001E68                     
  6826                           ;usb_device.c: 1448: pBDTEntryEP0OutCurrent->ADR = ((uint16_t)(&SetupPkt));
  6827   001E68  EE20 F002          	lfsr	2,2
  6828   001E6C  5038               	movf	_pBDTEntryEP0OutCurrent^0,w,c
  6829   001E6E  26D9               	addwf	fsr2l,f,c
  6830   001E70  5039               	movf	(_pBDTEntryEP0OutCurrent+1)^0,w,c
  6831   001E72  22DA               	addwfc	fsr2h,f,c
  6832   001E74  0E20               	movlw	32
  6833   001E76  6EDE               	movwf	postinc2,c
  6834   001E78  0E04               	movlw	4
  6835   001E7A  6EDD               	movwf	postdec2,c
  6836   001E7C                     
  6837                           ;usb_device.c: 1449: pBDTEntryEP0OutCurrent->STAT.Val = 0x04;
  6838   001E7C  C038  FFD9         	movff	_pBDTEntryEP0OutCurrent,fsr2l
  6839   001E80  C039  FFDA         	movff	_pBDTEntryEP0OutCurrent+1,fsr2h
  6840   001E84  0E04               	movlw	4
  6841   001E86  6EDF               	movwf	indf2,c
  6842   001E88                     
  6843                           ;usb_device.c: 1450: pBDTEntryEP0OutCurrent->STAT.Val |= 0x80;
  6844   001E88  C038  FFD9         	movff	_pBDTEntryEP0OutCurrent,fsr2l
  6845   001E8C  C039  FFDA         	movff	_pBDTEntryEP0OutCurrent+1,fsr2h
  6846   001E90  0E00               	movlw	0
  6847   001E92  8EDB               	bsf	plusw2,7,c
  6848   001E94                     
  6849                           ;usb_device.c: 1451: BothEP0OutUOWNsSet = 1;
  6850   001E94  0E01               	movlw	1
  6851   001E96  6E44               	movwf	_BothEP0OutUOWNsSet^0,c	;volatile
  6852   001E98                     
  6853                           ;usb_device.c: 1455: pBDTEntryEP0OutNext->CNT = 8;
  6854   001E98  EE20 F001          	lfsr	2,1
  6855   001E9C  5036               	movf	_pBDTEntryEP0OutNext^0,w,c
  6856   001E9E  26D9               	addwf	fsr2l,f,c
  6857   001EA0  5037               	movf	(_pBDTEntryEP0OutNext+1)^0,w,c
  6858   001EA2  22DA               	addwfc	fsr2h,f,c
  6859   001EA4  0E08               	movlw	8
  6860   001EA6  6EDF               	movwf	indf2,c
  6861   001EA8                     
  6862                           ;usb_device.c: 1456: pBDTEntryEP0OutNext->ADR = ((uint16_t)(&SetupPkt));
  6863   001EA8  EE20 F002          	lfsr	2,2
  6864   001EAC  5036               	movf	_pBDTEntryEP0OutNext^0,w,c
  6865   001EAE  26D9               	addwf	fsr2l,f,c
  6866   001EB0  5037               	movf	(_pBDTEntryEP0OutNext+1)^0,w,c
  6867   001EB2  22DA               	addwfc	fsr2h,f,c
  6868   001EB4  0E20               	movlw	32
  6869   001EB6  6EDE               	movwf	postinc2,c
  6870   001EB8  0E04               	movlw	4
  6871   001EBA  6EDD               	movwf	postdec2,c
  6872   001EBC                     
  6873                           ;usb_device.c: 1457: pBDTEntryEP0OutNext->STAT.Val = 0x80;
  6874   001EBC  C036  FFD9         	movff	_pBDTEntryEP0OutNext,fsr2l
  6875   001EC0  C037  FFDA         	movff	_pBDTEntryEP0OutNext+1,fsr2h
  6876   001EC4  0E80               	movlw	128
  6877   001EC6  6EDF               	movwf	indf2,c
  6878   001EC8  EF66  F00F         	goto	i2l227
  6879   001ECC                     i2l223:
  6880   001ECC                     i2l227:
  6881   001ECC  0012               	return		;funcret
  6882   001ECE                     __end_of_USBCtrlEPAllowStatusStage:
  6883                           	callstack 0
  6884                           
  6885 ;; *************** function _USBCtrlTrfInHandler *****************
  6886 ;; Defined at:
  6887 ;;		line 2597 in file "usb_device.c"
  6888 ;; Parameters:    Size  Location     Type
  6889 ;;		None
  6890 ;; Auto vars:     Size  Location     Type
  6891 ;;  lastDTS         1    1[COMRAM] unsigned char 
  6892 ;; Return value:  Size  Location     Type
  6893 ;;                  1    wreg      void 
  6894 ;; Registers used:
  6895 ;;		wreg, fsr1l, fsr1h, fsr2l, fsr2h, status,2, status,0, tblptrl, tblptrh, tblptru, cstack
  6896 ;; Tracked objects:
  6897 ;;		On entry : 0/0
  6898 ;;		On exit  : 0/0
  6899 ;;		Unchanged: 0/0
  6900 ;; Data sizes:     COMRAM   BANK0   BANK1   BANK2   BANK3   BANK4   BANK5   BANK6   BANK7
  6901 ;;      Params:         0       0       0       0       0       0       0       0       0
  6902 ;;      Locals:         1       0       0       0       0       0       0       0       0
  6903 ;;      Temps:          0       0       0       0       0       0       0       0       0
  6904 ;;      Totals:         1       0       0       0       0       0       0       0       0
  6905 ;;Total ram usage:        1 bytes
  6906 ;; Hardware stack levels used: 1
  6907 ;; Hardware stack levels required when called: 1
  6908 ;; This function calls:
  6909 ;;		_USBCtrlTrfTxService
  6910 ;; This function is called by:
  6911 ;;		_USBCtrlEPService
  6912 ;; This function uses a non-reentrant model
  6913 ;;
  6914                           
  6915                           	psect	text38
  6916   001CD4                     __ptext38:
  6917                           	callstack 0
  6918   001CD4                     _USBCtrlTrfInHandler:
  6919                           	callstack 22
  6920   001CD4                     
  6921                           ;usb_device.c: 2599: uint8_t lastDTS;;usb_device.c: 2601: lastDTS = pBDTEntryIn[0]->STAT
      +                          .DTS;
  6922   001CD4  C06E  FFD9         	movff	_pBDTEntryIn,fsr2l
  6923   001CD8  C06F  FFDA         	movff	_pBDTEntryIn+1,fsr2h
  6924   001CDC  0100               	movlb	0	; () banked
  6925   001CDE  0E00               	movlw	0
  6926   001CE0  BCDF               	btfsc	indf2,6,c
  6927   001CE2  0E01               	movlw	1
  6928   001CE4  6E02               	movwf	USBCtrlTrfInHandler@lastDTS^0,c
  6929   001CE6                     
  6930                           ; BSR set to: 0
  6931                           ;usb_device.c: 2604: pBDTEntryIn[0] = (volatile BDT_ENTRY*)(((uintptr_t)pBDTEntryIn[0]) 
      +                          ^ 0x0004);
  6932   001CE6  0E04               	movlw	4
  6933   001CE8  196E               	xorwf	_pBDTEntryIn& (0+255),w,b
  6934   001CEA  6F6E               	movwf	_pBDTEntryIn& (0+255),b
  6935   001CEC  516F               	movf	(_pBDTEntryIn+1)& (0+255),w,b
  6936   001CEE  6F6F               	movwf	(_pBDTEntryIn+1)& (0+255),b
  6937   001CF0                     
  6938                           ; BSR set to: 0
  6939                           ;usb_device.c: 2609: if(USBDeviceState == ADR_PENDING_STATE)
  6940   001CF0  0E08               	movlw	8
  6941   001CF2  184A               	xorwf	_USBDeviceState^0,w,c	;volatile
  6942   001CF4  A4D8               	btfss	status,2,c
  6943   001CF6  EF7F  F00E         	goto	i2u217_41
  6944   001CFA  EF81  F00E         	goto	i2u217_40
  6945   001CFE                     i2u217_41:
  6946   001CFE  EF93  F00E         	goto	i2l3228
  6947   001D02                     i2u217_40:
  6948   001D02                     
  6949                           ; BSR set to: 0
  6950                           ;usb_device.c: 2610: {;usb_device.c: 2611: UADDR = (SetupPkt.bDevADR & 0x7F);
  6951   001D02  0104               	movlb	4	; () banked
  6952   001D04  5122               	movf	34,w,b	;volatile
  6953   001D06  0B7F               	andlw	127
  6954   001D08  6E6E               	movwf	110,c	;volatile
  6955   001D0A                     
  6956                           ; BSR set to: 4
  6957                           ;usb_device.c: 2612: if(UADDR != 0u)
  6958   001D0A  506E               	movf	110,w,c	;volatile
  6959   001D0C  B4D8               	btfsc	status,2,c
  6960   001D0E  EF8B  F00E         	goto	i2u218_41
  6961   001D12  EF8D  F00E         	goto	i2u218_40
  6962   001D16                     i2u218_41:
  6963   001D16  EF91  F00E         	goto	i2l3226
  6964   001D1A                     i2u218_40:
  6965   001D1A                     
  6966                           ; BSR set to: 4
  6967                           ;usb_device.c: 2613: {;usb_device.c: 2614: USBDeviceState=ADDRESS_STATE;
  6968   001D1A  0E10               	movlw	16
  6969   001D1C  6E4A               	movwf	_USBDeviceState^0,c	;volatile
  6970                           
  6971                           ;usb_device.c: 2615: }
  6972   001D1E  EF93  F00E         	goto	i2l3228
  6973   001D22                     i2l3226:
  6974                           
  6975                           ; BSR set to: 4
  6976                           ;usb_device.c: 2616: else;usb_device.c: 2617: {;usb_device.c: 2618: USBDeviceState=DEFAU
      +                          LT_STATE;
  6977   001D22  0E04               	movlw	4
  6978   001D24  6E4A               	movwf	_USBDeviceState^0,c	;volatile
  6979   001D26                     i2l3228:
  6980                           
  6981                           ;usb_device.c: 2619: };usb_device.c: 2620: };usb_device.c: 2623: if(controlTransferState
      +                           == 1)
  6982   001D26  0448               	decf	_controlTransferState^0,w,c	;volatile
  6983   001D28  A4D8               	btfss	status,2,c
  6984   001D2A  EF99  F00E         	goto	i2u219_41
  6985   001D2E  EF9B  F00E         	goto	i2u219_40
  6986   001D32                     i2u219_41:
  6987   001D32  EFE3  F00E         	goto	i2l353
  6988   001D36                     i2u219_40:
  6989   001D36                     
  6990                           ;usb_device.c: 2624: {;usb_device.c: 2625: pBDTEntryIn[0]->ADR = ((uint16_t)(CtrlTrfData
      +                          ));
  6991   001D36  0100               	movlb	0	; () banked
  6992   001D38  EE20 F002          	lfsr	2,2
  6993   001D3C  516E               	movf	_pBDTEntryIn& (0+255),w,b
  6994   001D3E  26D9               	addwf	fsr2l,f,c
  6995   001D40  516F               	movf	(_pBDTEntryIn+1)& (0+255),w,b
  6996   001D42  22DA               	addwfc	fsr2h,f,c
  6997   001D44  0E28               	movlw	40
  6998   001D46  6EDE               	movwf	postinc2,c
  6999   001D48  0E04               	movlw	4
  7000   001D4A  6EDD               	movwf	postdec2,c
  7001   001D4C                     
  7002                           ; BSR set to: 0
  7003                           ;usb_device.c: 2626: USBCtrlTrfTxService();
  7004   001D4C  EC5B  F00D         	call	_USBCtrlTrfTxService	;wreg free
  7005   001D50                     
  7006                           ;usb_device.c: 2632: if(shortPacketStatus == 2)
  7007   001D50  0E02               	movlw	2
  7008   001D52  1849               	xorwf	_shortPacketStatus^0,w,c	;volatile
  7009   001D54  A4D8               	btfss	status,2,c
  7010   001D56  EFAF  F00E         	goto	i2u220_41
  7011   001D5A  EFB1  F00E         	goto	i2u220_40
  7012   001D5E                     i2u220_41:
  7013   001D5E  EFBF  F00E         	goto	i2l3240
  7014   001D62                     i2u220_40:
  7015   001D62                     
  7016                           ;usb_device.c: 2633: {;usb_device.c: 2636: pBDTEntryIn[0]->STAT.Val = 0x04;
  7017   001D62  C06E  FFD9         	movff	_pBDTEntryIn,fsr2l
  7018   001D66  C06F  FFDA         	movff	_pBDTEntryIn+1,fsr2h
  7019   001D6A  0E04               	movlw	4
  7020   001D6C  6EDF               	movwf	indf2,c
  7021   001D6E                     
  7022                           ;usb_device.c: 2637: pBDTEntryIn[0]->STAT.Val |= 0x80;
  7023   001D6E  C06E  FFD9         	movff	_pBDTEntryIn,fsr2l
  7024   001D72  C06F  FFDA         	movff	_pBDTEntryIn+1,fsr2h
  7025   001D76  0E00               	movlw	0
  7026   001D78  8EDB               	bsf	plusw2,7,c
  7027                           
  7028                           ;usb_device.c: 2638: }
  7029   001D7A  EFEE  F00E         	goto	i2l361
  7030   001D7E                     i2l3240:
  7031                           
  7032                           ;usb_device.c: 2639: else;usb_device.c: 2640: {;usb_device.c: 2641: if(lastDTS == 0)
  7033   001D7E  5002               	movf	USBCtrlTrfInHandler@lastDTS^0,w,c
  7034   001D80  A4D8               	btfss	status,2,c
  7035   001D82  EFC5  F00E         	goto	i2u221_41
  7036   001D86  EFC7  F00E         	goto	i2u221_40
  7037   001D8A                     i2u221_41:
  7038   001D8A  EFD5  F00E         	goto	i2l3246
  7039   001D8E                     i2u221_40:
  7040   001D8E                     
  7041                           ;usb_device.c: 2642: {;usb_device.c: 2643: pBDTEntryIn[0]->STAT.Val = 0x40|(0x08 & 0x08)
      +                          ;
  7042   001D8E  C06E  FFD9         	movff	_pBDTEntryIn,fsr2l
  7043   001D92  C06F  FFDA         	movff	_pBDTEntryIn+1,fsr2h
  7044   001D96  0E48               	movlw	72
  7045   001D98  6EDF               	movwf	indf2,c
  7046   001D9A                     
  7047                           ;usb_device.c: 2644: pBDTEntryIn[0]->STAT.Val |= 0x80;
  7048   001D9A  C06E  FFD9         	movff	_pBDTEntryIn,fsr2l
  7049   001D9E  C06F  FFDA         	movff	_pBDTEntryIn+1,fsr2h
  7050   001DA2  0E00               	movlw	0
  7051   001DA4  8EDB               	bsf	plusw2,7,c
  7052                           
  7053                           ;usb_device.c: 2645: }
  7054   001DA6  EFEE  F00E         	goto	i2l361
  7055   001DAA                     i2l3246:
  7056                           
  7057                           ;usb_device.c: 2646: else;usb_device.c: 2647: {;usb_device.c: 2648: pBDTEntryIn[0]->STAT
      +                          .Val = 0x00|(0x08 & 0x08);
  7058   001DAA  C06E  FFD9         	movff	_pBDTEntryIn,fsr2l
  7059   001DAE  C06F  FFDA         	movff	_pBDTEntryIn+1,fsr2h
  7060   001DB2  0E08               	movlw	8
  7061   001DB4  6EDF               	movwf	indf2,c
  7062   001DB6                     
  7063                           ;usb_device.c: 2649: pBDTEntryIn[0]->STAT.Val |= 0x80;
  7064   001DB6  C06E  FFD9         	movff	_pBDTEntryIn,fsr2l
  7065   001DBA  C06F  FFDA         	movff	_pBDTEntryIn+1,fsr2h
  7066   001DBE  0E00               	movlw	0
  7067   001DC0  8EDB               	bsf	plusw2,7,c
  7068   001DC2  EFEE  F00E         	goto	i2l361
  7069   001DC6                     i2l353:
  7070                           
  7071                           ;usb_device.c: 2653: else;usb_device.c: 2654: {;usb_device.c: 2658: if(outPipes[0].info.
      +                          bits.busy == 1)
  7072   001DC6  0100               	movlb	0	; () banked
  7073   001DC8  AF63               	btfss	(_outPipes+3)& (0+255),7,b	;volatile
  7074   001DCA  EFE9  F00E         	goto	i2u222_41
  7075   001DCE  EFEB  F00E         	goto	i2u222_40
  7076   001DD2                     i2u222_41:
  7077   001DD2  EFEC  F00E         	goto	i2l3252
  7078   001DD6                     i2u222_40:
  7079   001DD6                     
  7080                           ; BSR set to: 0
  7081                           ;usb_device.c: 2663: };usb_device.c: 2664: outPipes[0].info.bits.busy = 0;
  7082   001DD6  9F63               	bcf	(_outPipes+3)& (0+255),7,b	;volatile
  7083   001DD8                     i2l3252:
  7084                           
  7085                           ; BSR set to: 0
  7086                           ;usb_device.c: 2665: };usb_device.c: 2667: controlTransferState = 0;
  7087   001DD8  0E00               	movlw	0
  7088   001DDA  6E48               	movwf	_controlTransferState^0,c	;volatile
  7089   001DDC                     i2l361:
  7090   001DDC  0012               	return		;funcret
  7091   001DDE                     __end_of_USBCtrlTrfInHandler:
  7092                           	callstack 0
  7093                           
  7094 ;; *************** function _USBCtrlTrfTxService *****************
  7095 ;; Defined at:
  7096 ;;		line 1773 in file "usb_device.c"
  7097 ;; Parameters:    Size  Location     Type
  7098 ;;		None
  7099 ;; Auto vars:     Size  Location     Type
  7100 ;;  byteToSend      1    0[COMRAM] unsigned char 
  7101 ;; Return value:  Size  Location     Type
  7102 ;;                  1    wreg      void 
  7103 ;; Registers used:
  7104 ;;		wreg, fsr1l, fsr1h, fsr2l, fsr2h, status,2, status,0, tblptrl, tblptrh, tblptru
  7105 ;; Tracked objects:
  7106 ;;		On entry : 0/0
  7107 ;;		On exit  : 0/0
  7108 ;;		Unchanged: 0/0
  7109 ;; Data sizes:     COMRAM   BANK0   BANK1   BANK2   BANK3   BANK4   BANK5   BANK6   BANK7
  7110 ;;      Params:         0       0       0       0       0       0       0       0       0
  7111 ;;      Locals:         1       0       0       0       0       0       0       0       0
  7112 ;;      Temps:          0       0       0       0       0       0       0       0       0
  7113 ;;      Totals:         1       0       0       0       0       0       0       0       0
  7114 ;;Total ram usage:        1 bytes
  7115 ;; Hardware stack levels used: 1
  7116 ;; This function calls:
  7117 ;;		Nothing
  7118 ;; This function is called by:
  7119 ;;		_USBCtrlEPAllowDataStage
  7120 ;;		_USBCtrlTrfInHandler
  7121 ;; This function uses a non-reentrant model
  7122 ;;
  7123                           
  7124                           	psect	text39
  7125   001AB6                     __ptext39:
  7126                           	callstack 0
  7127   001AB6                     _USBCtrlTrfTxService:
  7128                           	callstack 20
  7129   001AB6                     
  7130                           ;usb_device.c: 1775: uint8_t byteToSend;;usb_device.c: 1779: byteToSend = 8;
  7131   001AB6  0E08               	movlw	8
  7132   001AB8  6E01               	movwf	USBCtrlTrfTxService@byteToSend^0,c
  7133   001ABA                     
  7134                           ;usb_device.c: 1780: if(inPipes[0].wCount.Val < (uint8_t)8)
  7135   001ABA  0100               	movlb	0	; () banked
  7136   001ABC  516D               	movf	(_inPipes+5)& (0+255),w,b	;volatile
  7137   001ABE  E107               	bnz	i2u154_41
  7138   001AC0  0E08               	movlw	8
  7139   001AC2  5D6C               	subwf	(_inPipes+4)& (0+255),w,b	;volatile
  7140   001AC4  B0D8               	btfsc	status,0,c
  7141   001AC6  EF67  F00D         	goto	i2u154_41
  7142   001ACA  EF69  F00D         	goto	i2u154_40
  7143   001ACE                     i2u154_41:
  7144   001ACE  EF81  F00D         	goto	i2l2750
  7145   001AD2                     i2u154_40:
  7146   001AD2                     
  7147                           ; BSR set to: 0
  7148                           ;usb_device.c: 1781: {;usb_device.c: 1782: byteToSend = inPipes[0].wCount.Val;
  7149   001AD2  C06C  F001         	movff	_inPipes+4,USBCtrlTrfTxService@byteToSend	;volatile
  7150   001AD6                     
  7151                           ; BSR set to: 0
  7152                           ;usb_device.c: 1789: if(shortPacketStatus == 0)
  7153   001AD6  5049               	movf	_shortPacketStatus^0,w,c	;volatile
  7154   001AD8  A4D8               	btfss	status,2,c
  7155   001ADA  EF71  F00D         	goto	i2u155_41
  7156   001ADE  EF73  F00D         	goto	i2u155_40
  7157   001AE2                     i2u155_41:
  7158   001AE2  EF77  F00D         	goto	i2l2746
  7159   001AE6                     i2u155_40:
  7160   001AE6                     
  7161                           ; BSR set to: 0
  7162                           ;usb_device.c: 1790: {;usb_device.c: 1791: shortPacketStatus = 1;
  7163   001AE6  0E01               	movlw	1
  7164   001AE8  6E49               	movwf	_shortPacketStatus^0,c	;volatile
  7165                           
  7166                           ;usb_device.c: 1792: }
  7167   001AEA  EF81  F00D         	goto	i2l2750
  7168   001AEE                     i2l2746:
  7169                           
  7170                           ; BSR set to: 0
  7171                           ;usb_device.c: 1793: else if(shortPacketStatus == 1)
  7172   001AEE  0449               	decf	_shortPacketStatus^0,w,c	;volatile
  7173   001AF0  A4D8               	btfss	status,2,c
  7174   001AF2  EF7D  F00D         	goto	i2u156_41
  7175   001AF6  EF7F  F00D         	goto	i2u156_40
  7176   001AFA                     i2u156_41:
  7177   001AFA  EF81  F00D         	goto	i2l2750
  7178   001AFE                     i2u156_40:
  7179   001AFE                     
  7180                           ; BSR set to: 0
  7181                           ;usb_device.c: 1794: {;usb_device.c: 1795: shortPacketStatus = 2;
  7182   001AFE  0E02               	movlw	2
  7183   001B00  6E49               	movwf	_shortPacketStatus^0,c	;volatile
  7184   001B02                     i2l2750:
  7185                           
  7186                           ; BSR set to: 0
  7187                           ;usb_device.c: 1796: };usb_device.c: 1797: };usb_device.c: 1801: inPipes[0].wCount.Val -
      +                          = byteToSend;
  7188   001B02  5001               	movf	USBCtrlTrfTxService@byteToSend^0,w,c
  7189   001B04  5F6C               	subwf	(_inPipes+4)& (0+255),f,b	;volatile
  7190   001B06  0E00               	movlw	0
  7191   001B08  5B6D               	subwfb	(_inPipes+5)& (0+255),f,b	;volatile
  7192   001B0A                     
  7193                           ; BSR set to: 0
  7194                           ;usb_device.c: 1806: pBDTEntryIn[0]->CNT = byteToSend;
  7195   001B0A  EE20 F001          	lfsr	2,1
  7196   001B0E  516E               	movf	_pBDTEntryIn& (0+255),w,b
  7197   001B10  26D9               	addwf	fsr2l,f,c
  7198   001B12  516F               	movf	(_pBDTEntryIn+1)& (0+255),w,b
  7199   001B14  22DA               	addwfc	fsr2h,f,c
  7200   001B16  C001  FFDF         	movff	USBCtrlTrfTxService@byteToSend,indf2
  7201   001B1A                     
  7202                           ; BSR set to: 0
  7203                           ;usb_device.c: 1810: pDst = (volatile uint8_t*)CtrlTrfData;
  7204   001B1A  0E28               	movlw	40
  7205   001B1C  6E34               	movwf	_pDst^0,c
  7206   001B1E  0E04               	movlw	4
  7207   001B20  6E35               	movwf	(_pDst+1)^0,c
  7208   001B22                     
  7209                           ; BSR set to: 0
  7210                           ;usb_device.c: 1811: if(inPipes[0].info.bits.ctrl_trf_mem == 0x00)
  7211   001B22  B16B               	btfsc	(_inPipes+3)& (0+255),0,b	;volatile
  7212   001B24  EF96  F00D         	goto	i2u157_41
  7213   001B28  EF98  F00D         	goto	i2u157_40
  7214   001B2C                     i2u157_41:
  7215   001B2C  EFDA  F00D         	goto	i2l2778
  7216   001B30                     i2u157_40:
  7217   001B30  EFB5  F00D         	goto	i2l2768
  7218   001B34                     i2l2760:
  7219                           
  7220                           ; BSR set to: 0
  7221                           ;usb_device.c: 1814: {;usb_device.c: 1815: *pDst++ = *inPipes[0].pSrc.bRom++;
  7222   001B34  C068  FFF6         	movff	_inPipes,tblptrl	;volatile
  7223   001B38  C069  FFF7         	movff	_inPipes+1,tblptrh	;volatile
  7224   001B3C  6AF8               	clrf	tblptru,c
  7225   001B3E  C034  FFD9         	movff	_pDst,fsr2l
  7226   001B42  C035  FFDA         	movff	_pDst+1,fsr2h
  7227   001B46  0E07               	movlw	(high __ramtop+-1)
  7228   001B48  64F7               	cpfsgt	tblptrh,c
  7229   001B4A  D003               	bra	i2u158_47
  7230   001B4C  0008               	tblrd		*
  7231   001B4E  50F5               	movf	tablat,w,c
  7232   001B50  D005               	bra	i2u158_40
  7233   001B52                     i2u158_47:
  7234   001B52  CFF6 FFE1          	movff	tblptrl,fsr1l
  7235   001B56  CFF7 FFE2          	movff	tblptrh,fsr1h
  7236   001B5A  50E7               	movf	indf1,w,c
  7237   001B5C                     i2u158_40:
  7238   001B5C  6EDF               	movwf	indf2,c
  7239   001B5E  0100               	movlb	0	; () banked
  7240   001B60  4B68               	infsnz	_inPipes& (0+255),f,b	;volatile
  7241   001B62  2B69               	incf	(_inPipes+1)& (0+255),f,b	;volatile
  7242   001B64                     
  7243                           ; BSR set to: 0
  7244   001B64  4A34               	infsnz	_pDst^0,f,c
  7245   001B66  2A35               	incf	(_pDst+1)^0,f,c
  7246   001B68                     
  7247                           ; BSR set to: 0
  7248                           ;usb_device.c: 1816: byteToSend--;
  7249   001B68  0601               	decf	USBCtrlTrfTxService@byteToSend^0,f,c
  7250   001B6A                     i2l2768:
  7251                           
  7252                           ; BSR set to: 0
  7253   001B6A  5001               	movf	USBCtrlTrfTxService@byteToSend^0,w,c
  7254   001B6C  A4D8               	btfss	status,2,c
  7255   001B6E  EFBB  F00D         	goto	i2u159_41
  7256   001B72  EFBD  F00D         	goto	i2u159_40
  7257   001B76                     i2u159_41:
  7258   001B76  EF9A  F00D         	goto	i2l2760
  7259   001B7A                     i2u159_40:
  7260   001B7A  EFE2  F00D         	goto	i2l266
  7261   001B7E                     i2l2770:
  7262                           
  7263                           ; BSR set to: 0
  7264                           ;usb_device.c: 1822: {;usb_device.c: 1823: *pDst++ = *inPipes[0].pSrc.bRam++;
  7265   001B7E  C068  FFF6         	movff	_inPipes,tblptrl	;volatile
  7266   001B82  C069  FFF7         	movff	_inPipes+1,tblptrh	;volatile
  7267   001B86  6AF8               	clrf	tblptru,c
  7268   001B88  C034  FFD9         	movff	_pDst,fsr2l
  7269   001B8C  C035  FFDA         	movff	_pDst+1,fsr2h
  7270   001B90  0E07               	movlw	(high __ramtop+-1)
  7271   001B92  64F7               	cpfsgt	tblptrh,c
  7272   001B94  D003               	bra	i2u160_47
  7273   001B96  0008               	tblrd		*
  7274   001B98  50F5               	movf	tablat,w,c
  7275   001B9A  D005               	bra	i2u160_40
  7276   001B9C                     i2u160_47:
  7277   001B9C  CFF6 FFE1          	movff	tblptrl,fsr1l
  7278   001BA0  CFF7 FFE2          	movff	tblptrh,fsr1h
  7279   001BA4  50E7               	movf	indf1,w,c
  7280   001BA6                     i2u160_40:
  7281   001BA6  6EDF               	movwf	indf2,c
  7282   001BA8  0100               	movlb	0	; () banked
  7283   001BAA  4B68               	infsnz	_inPipes& (0+255),f,b	;volatile
  7284   001BAC  2B69               	incf	(_inPipes+1)& (0+255),f,b	;volatile
  7285   001BAE                     
  7286                           ; BSR set to: 0
  7287   001BAE  4A34               	infsnz	_pDst^0,f,c
  7288   001BB0  2A35               	incf	(_pDst+1)^0,f,c
  7289   001BB2                     
  7290                           ; BSR set to: 0
  7291                           ;usb_device.c: 1824: byteToSend--;
  7292   001BB2  0601               	decf	USBCtrlTrfTxService@byteToSend^0,f,c
  7293   001BB4                     i2l2778:
  7294                           
  7295                           ; BSR set to: 0
  7296   001BB4  5001               	movf	USBCtrlTrfTxService@byteToSend^0,w,c
  7297   001BB6  A4D8               	btfss	status,2,c
  7298   001BB8  EFE0  F00D         	goto	i2u161_41
  7299   001BBC  EFE2  F00D         	goto	i2u161_40
  7300   001BC0                     i2u161_41:
  7301   001BC0  EFBF  F00D         	goto	i2l2770
  7302   001BC4                     i2u161_40:
  7303   001BC4                     i2l266:
  7304                           
  7305                           ; BSR set to: 0
  7306   001BC4  0012               	return		;funcret
  7307   001BC6                     __end_of_USBCtrlTrfTxService:
  7308                           	callstack 0
  7309                           
  7310                           	psect	rparam
  7311   000000                     
  7312                           	psect	temp
  7313   000050                     btemp:
  7314                           	callstack 0
  7315   000050                     	ds	1
  7316   000000                     int$flags	set	btemp
  7317   000000                     wtemp8	set	btemp+1
  7318   000000                     ttemp5	set	btemp+1
  7319   000000                     ttemp6	set	btemp+4
  7320   000000                     ttemp7	set	btemp+8
  7321                           
  7322                           	psect	idloc
  7323                           
  7324                           ;Config register IDLOC0 @ 0x200000
  7325                           ;	unspecified, using default values
  7326   200000                     	org	2097152
  7327   200000  FF                 	db	255
  7328                           
  7329                           ;Config register IDLOC1 @ 0x200001
  7330                           ;	unspecified, using default values
  7331   200001                     	org	2097153
  7332   200001  FF                 	db	255
  7333                           
  7334                           ;Config register IDLOC2 @ 0x200002
  7335                           ;	unspecified, using default values
  7336   200002                     	org	2097154
  7337   200002  FF                 	db	255
  7338                           
  7339                           ;Config register IDLOC3 @ 0x200003
  7340                           ;	unspecified, using default values
  7341   200003                     	org	2097155
  7342   200003  FF                 	db	255
  7343                           
  7344                           ;Config register IDLOC4 @ 0x200004
  7345                           ;	unspecified, using default values
  7346   200004                     	org	2097156
  7347   200004  FF                 	db	255
  7348                           
  7349                           ;Config register IDLOC5 @ 0x200005
  7350                           ;	unspecified, using default values
  7351   200005                     	org	2097157
  7352   200005  FF                 	db	255
  7353                           
  7354                           ;Config register IDLOC6 @ 0x200006
  7355                           ;	unspecified, using default values
  7356   200006                     	org	2097158
  7357   200006  FF                 	db	255
  7358                           
  7359                           ;Config register IDLOC7 @ 0x200007
  7360                           ;	unspecified, using default values
  7361   200007                     	org	2097159
  7362   200007  FF                 	db	255
  7363                           
  7364                           	psect	config
  7365                           
  7366                           ;Config register CONFIG1L @ 0x300000
  7367                           ;	PLL Prescaler Selection bits
  7368                           ;	PLLDIV = 5, Divide by 5 (20 MHz oscillator input)
  7369                           ;	System Clock Postscaler Selection bits
  7370                           ;	CPUDIV = OSC1_PLL2, [Primary Oscillator Src: /1][96 MHz PLL Src: /2]
  7371                           ;	USB Clock Selection bit (used in Full-Speed USB mode only; UCFG:FSEN = 1)
  7372                           ;	USBDIV = 2, USB clock source comes from the 96 MHz PLL divided by 2
  7373   300000                     	org	3145728
  7374   300000  24                 	db	36
  7375                           
  7376                           ;Config register CONFIG1H @ 0x300001
  7377                           ;	Oscillator Selection bits
  7378                           ;	FOSC = HSPLL_HS, HS oscillator, PLL enabled (HSPLL)
  7379                           ;	Fail-Safe Clock Monitor Enable bit
  7380                           ;	FCMEN = OFF, Fail-Safe Clock Monitor disabled
  7381                           ;	Internal/External Oscillator Switchover bit
  7382                           ;	IESO = OFF, Oscillator Switchover mode disabled
  7383   300001                     	org	3145729
  7384   300001  0E                 	db	14
  7385                           
  7386                           ;Config register CONFIG2L @ 0x300002
  7387                           ;	Power-up Timer Enable bit
  7388                           ;	PWRT = OFF, PWRT disabled
  7389                           ;	Brown-out Reset Enable bits
  7390                           ;	BOR = ON, Brown-out Reset enabled in hardware only (SBOREN is disabled)
  7391                           ;	Brown-out Reset Voltage bits
  7392                           ;	BORV = 3, Minimum setting 2.05V
  7393                           ;	USB Voltage Regulator Enable bit
  7394                           ;	VREGEN = ON, USB voltage regulator enabled
  7395   300002                     	org	3145730
  7396   300002  3F                 	db	63
  7397                           
  7398                           ;Config register CONFIG2H @ 0x300003
  7399                           ;	Watchdog Timer Enable bit
  7400                           ;	WDT = OFF, WDT disabled (control is placed on the SWDTEN bit)
  7401                           ;	Watchdog Timer Postscale Select bits
  7402                           ;	WDTPS = 32768, 1:32768
  7403   300003                     	org	3145731
  7404   300003  1E                 	db	30
  7405                           
  7406                           ; Padding undefined space
  7407   300004                     	org	3145732
  7408   300004  FF                 	db	255
  7409                           
  7410                           ;Config register CONFIG3H @ 0x300005
  7411                           ;	CCP2 MUX bit
  7412                           ;	CCP2MX = 0x1, unprogrammed default
  7413                           ;	PORTB A/D Enable bit
  7414                           ;	PBADEN = OFF, PORTB<4:0> pins are configured as digital I/O on Reset
  7415                           ;	Low-Power Timer 1 Oscillator Enable bit
  7416                           ;	LPT1OSC = OFF, Timer1 configured for higher power operation
  7417                           ;	MCLR Pin Enable bit
  7418                           ;	MCLRE = ON, MCLR pin enabled; RE3 input pin disabled
  7419   300005                     	org	3145733
  7420   300005  81                 	db	129
  7421                           
  7422                           ;Config register CONFIG4L @ 0x300006
  7423                           ;	Stack Full/Underflow Reset Enable bit
  7424                           ;	STVREN = ON, Stack full/underflow will cause Reset
  7425                           ;	Single-Supply ICSP Enable bit
  7426                           ;	LVP = OFF, Single-Supply ICSP disabled
  7427                           ;	Dedicated In-Circuit Debug/Programming Port (ICPORT) Enable bit
  7428                           ;	ICPRT = 0x0, unprogrammed default
  7429                           ;	Extended Instruction Set Enable bit
  7430                           ;	XINST = OFF, Instruction set extension and Indexed Addressing mode disabled (Legacy mo
      +                          de)
  7431                           ;	Background Debugger Enable bit
  7432                           ;	DEBUG = 0x1, unprogrammed default
  7433   300006                     	org	3145734
  7434   300006  81                 	db	129
  7435                           
  7436                           ; Padding undefined space
  7437   300007                     	org	3145735
  7438   300007  FF                 	db	255
  7439                           
  7440                           ;Config register CONFIG5L @ 0x300008
  7441                           ;	Code Protection bit
  7442                           ;	CP0 = OFF, Block 0 (000800-001FFFh) is not code-protected
  7443                           ;	Code Protection bit
  7444                           ;	CP1 = OFF, Block 1 (002000-003FFFh) is not code-protected
  7445                           ;	Code Protection bit
  7446                           ;	CP2 = 0x1, unprogrammed default
  7447                           ;	Code Protection bit
  7448                           ;	CP3 = 0x1, unprogrammed default
  7449   300008                     	org	3145736
  7450   300008  0F                 	db	15
  7451                           
  7452                           ;Config register CONFIG5H @ 0x300009
  7453                           ;	Boot Block Code Protection bit
  7454                           ;	CPB = OFF, Boot block (000000-0007FFh) is not code-protected
  7455                           ;	Data EEPROM Code Protection bit
  7456                           ;	CPD = 0x1, unprogrammed default
  7457   300009                     	org	3145737
  7458   300009  C0                 	db	192
  7459                           
  7460                           ;Config register CONFIG6L @ 0x30000A
  7461                           ;	Write Protection bit
  7462                           ;	WRT0 = OFF, Block 0 (000800-001FFFh) is not write-protected
  7463                           ;	Write Protection bit
  7464                           ;	WRT1 = OFF, Block 1 (002000-003FFFh) is not write-protected
  7465                           ;	Write Protection bit
  7466                           ;	WRT2 = 0x1, unprogrammed default
  7467                           ;	Write Protection bit
  7468                           ;	WRT3 = 0x1, unprogrammed default
  7469   30000A                     	org	3145738
  7470   30000A  0F                 	db	15
  7471                           
  7472                           ;Config register CONFIG6H @ 0x30000B
  7473                           ;	Configuration Register Write Protection bit
  7474                           ;	WRTC = OFF, Configuration registers (300000-3000FFh) are not write-protected
  7475                           ;	Boot Block Write Protection bit
  7476                           ;	WRTB = OFF, Boot block (000000-0007FFh) is not write-protected
  7477                           ;	Data EEPROM Write Protection bit
  7478                           ;	WRTD = 0x1, unprogrammed default
  7479   30000B                     	org	3145739
  7480   30000B  E0                 	db	224
  7481                           
  7482                           ;Config register CONFIG7L @ 0x30000C
  7483                           ;	Table Read Protection bit
  7484                           ;	EBTR0 = OFF, Block 0 (000800-001FFFh) is not protected from table reads executed in ot
      +                          her blocks
  7485                           ;	Table Read Protection bit
  7486                           ;	EBTR1 = OFF, Block 1 (002000-003FFFh) is not protected from table reads executed in ot
      +                          her blocks
  7487                           ;	Table Read Protection bit
  7488                           ;	EBTR2 = 0x1, unprogrammed default
  7489                           ;	Table Read Protection bit
  7490                           ;	EBTR3 = 0x1, unprogrammed default
  7491   30000C                     	org	3145740
  7492   30000C  0F                 	db	15
  7493                           
  7494                           ;Config register CONFIG7H @ 0x30000D
  7495                           ;	Boot Block Table Read Protection bit
  7496                           ;	EBTRB = OFF, Boot block (000000-0007FFh) is not protected from table reads executed in
      +                           other blocks
  7497   30000D                     	org	3145741
  7498   30000D  40                 	db	64
  7499                           tosu	equ	0xFFF
  7500                           tosh	equ	0xFFE
  7501                           tosl	equ	0xFFD
  7502                           stkptr	equ	0xFFC
  7503                           pclatu	equ	0xFFB
  7504                           pclath	equ	0xFFA
  7505                           pcl	equ	0xFF9
  7506                           tblptru	equ	0xFF8
  7507                           tblptrh	equ	0xFF7
  7508                           tblptrl	equ	0xFF6
  7509                           tablat	equ	0xFF5
  7510                           prodh	equ	0xFF4
  7511                           prodl	equ	0xFF3
  7512                           indf0	equ	0xFEF
  7513                           postinc0	equ	0xFEE
  7514                           postdec0	equ	0xFED
  7515                           preinc0	equ	0xFEC
  7516                           plusw0	equ	0xFEB
  7517                           fsr0h	equ	0xFEA
  7518                           fsr0l	equ	0xFE9
  7519                           wreg	equ	0xFE8
  7520                           indf1	equ	0xFE7
  7521                           postinc1	equ	0xFE6
  7522                           postdec1	equ	0xFE5
  7523                           preinc1	equ	0xFE4
  7524                           plusw1	equ	0xFE3
  7525                           fsr1h	equ	0xFE2
  7526                           fsr1l	equ	0xFE1
  7527                           bsr	equ	0xFE0
  7528                           indf2	equ	0xFDF
  7529                           postinc2	equ	0xFDE
  7530                           postdec2	equ	0xFDD
  7531                           preinc2	equ	0xFDC
  7532                           plusw2	equ	0xFDB
  7533                           fsr2h	equ	0xFDA
  7534                           fsr2l	equ	0xFD9
  7535                           status	equ	0xFD8

Data Sizes:
    Strings     0
    Constant    198
    Data        0
    BSS         64
    Persistent  0
    Stack       0

Auto Spaces:
    Space          Size  Autos    Used
    COMRAM           94     41      79
    BANK0           160     16      42
    BANK1           256      0       0
    BANK2           256      0       0
    BANK3           256      0       0
    BANK4           208      0       0
    BANK5           128      0       0
    BANK6           256      0       0
    BANK7           256      0       0

Pointer List with Targets:

    USER_USB_CALLBACK_EVENT_HANDLER@pdata	PTR void  size(2) Largest target is 2047
		 -> RAM(DATA[2047]), USTATcopy(COMRAM[1]), USBActiveConfiguration(COMRAM[1]), NULL(NULL[0]), 
		 -> BDT(BIGRAMl[32]), 

    memset@p1	PTR void  size(2) Largest target is 32
		 -> USBAlternateInterface(COMRAM[1]), BDT(BIGRAMl[32]), UEP1(BITBIGSFRlhhll[1]), 

    memset@p	PTR unsigned char  size(2) Largest target is 32
		 -> USBAlternateInterface(COMRAM[1]), BDT(BIGRAMl[32]), UEP1(BITBIGSFRlhhll[1]), 

    memcpy@d1	PTR void  size(2) Largest target is 8
		 -> SetupPkt(BIGRAMhl[8]), 

    memcpy@d	PTR unsigned char  size(2) Largest target is 8
		 -> SetupPkt(BIGRAMhl[8]), 

    memcpy@s1	PTR const void  size(2) Largest target is 2047
		 -> CtrlTrfData(BIGRAMhl[8]), RAM(DATA[2047]), SetupPkt(BIGRAMhl[8]), 

    memcpy@s	PTR const unsigned char  size(2) Largest target is 2047
		 -> CtrlTrfData(BIGRAMhl[8]), RAM(DATA[2047]), SetupPkt(BIGRAMhl[8]), 

    USBInHandle	PTR volatile void  size(2) Largest target is 0
		 -> NULL(NULL[0]), 

    USBOutHandle	PTR volatile void  size(2) Largest target is 2047
		 -> RAM(DATA[2047]), NULL(NULL[0]), BDT(BIGRAMl[32]), 

    USBStdFeatureReqHandler@pUEP	PTR unsigned char  size(2) Largest target is 1
		 -> UEP0(ABS[1]), 

    USBStdFeatureReqHandler@p	PTR struct __BDT size(2) Largest target is 2047
		 -> RAM(DATA[2047]), NULL(NULL[0]), BDT(BIGRAMl[32]), 

    sp__memcpy	PTR void  size(2) Largest target is 8
		 -> SetupPkt(BIGRAMhl[8]), 

    USBStdGetStatusHandler@p	PTR struct __BDT size(2) Largest target is 2047
		 -> RAM(DATA[2047]), NULL(NULL[0]), BDT(BIGRAMl[32]), 

    pDst	PTR volatile unsigned char  size(2) Largest target is 8
		 -> CtrlTrfData(BIGRAMhl[8]), NULL(NULL[0]), 

    USBConfigureEndpoint@handle	PTR volatile struct __BDT size(2) Largest target is 32
		 -> BDT(BIGRAMl[32]), 

    pBDTEntryEP0OutCurrent	PTR volatile struct __BDT size(2) Largest target is 32
		 -> NULL(NULL[0]), BDT(BIGRAMl[32]), 

    pBDTEntryEP0OutNext	PTR volatile struct __BDT size(2) Largest target is 2047
		 -> RAM(DATA[2047]), NULL(NULL[0]), BDT(BIGRAMl[32]), 

    USBTransferOnePacket@data	PTR unsigned char  size(2) Largest target is 64
		 -> ReceivedDataBuffer(BIGRAMhl[64]), 

    sp__USBTransferOnePacket	PTR void  size(2) Largest target is 2047
		 -> RAM(DATA[2047]), NULL(NULL[0]), BDT(BIGRAMl[32]), 

    USBTransferOnePacket@handle	PTR volatile struct __BDT size(2) Largest target is 2047
		 -> RAM(DATA[2047]), NULL(NULL[0]), BDT(BIGRAMl[32]), 

    USBEnableEndpoint@p	PTR unsigned char  size(2) Largest target is 1
		 -> UEP0(ABS[1]), 

    pBDTEntryOut	PTR volatile struct __BDT[2] size(2) Largest target is 2047
		 -> RAM(DATA[2047]), NULL(NULL[0]), BDT(BIGRAMl[32]), 

    pBDTEntryIn	PTR volatile struct __BDT[2] size(2) Largest target is 2047
		 -> RAM(DATA[2047]), NULL(NULL[0]), BDT(BIGRAMl[32]), 

    S172$pFunc	PTR FTN()void  size(2) Largest target is 0

    outPipes.pFunc	PTR FTN()void  size(2) Largest target is 0

    S162$wRam	PTR unsigned int  size(2) Largest target is 0

    outPipes.pDst.wRam	PTR unsigned int  size(2) Largest target is 0

    S162$bRam	PTR unsigned char  size(2) Largest target is 0

    outPipes.pDst.bRam	PTR unsigned char  size(2) Largest target is 0

    S138$wRom	PTR const unsigned int  size(2) Largest target is 0

    inPipes.pSrc.wRom	PTR const unsigned int  size(2) Largest target is 0

    S138$wRam	PTR unsigned int  size(2) Largest target is 0

    inPipes.pSrc.wRam	PTR unsigned int  size(2) Largest target is 0

    S138$bRom	PTR const unsigned char  size(2) Largest target is 0

    inPipes.pSrc.bRom	PTR const unsigned char  size(2) Largest target is 0

    S138$bRam	PTR unsigned char  size(2) Largest target is 0

    inPipes.pSrc.bRam	PTR unsigned char  size(2) Largest target is 0

    sp__memset	PTR void  size(2) Largest target is 32
		 -> USBAlternateInterface(COMRAM[1]), BDT(BIGRAMl[32]), UEP1(BITBIGSFRlhhll[1]), 

    USB_SD_Ptr	const PTR const unsigned char [3] size(2) Largest target is 52
		 -> sd002(CODE[46]), sd001(CODE[52]), sd000(CODE[4]), 

    USB_CD_Ptr	const PTR const unsigned char [1] size(2) Largest target is 41
		 -> configDescriptor1(CODE[41]), 


Critical Paths under _main in COMRAM

    None.

Critical Paths under _pwm_low_priority in COMRAM

    None.

Critical Paths under _SYS_InterruptHigh in COMRAM

    _SYS_InterruptHigh->_USBDeviceTasks
    _USBDeviceTasks->_USBCtrlEPService
    i2_USBDeviceInit->i2_memset
    _USBWakeFromSuspend->_USER_USB_CALLBACK_EVENT_HANDLER
    _USBSuspend->_USER_USB_CALLBACK_EVENT_HANDLER
    _USBCtrlEPAllowDataStage->_USBCtrlTrfTxService
    _USBCheckStdRequest->_USBStdFeatureReqHandler
    _USBStdSetCfgHandler->_USER_USB_CALLBACK_EVENT_HANDLER
    _USBStdFeatureReqHandler->_USER_USB_CALLBACK_EVENT_HANDLER
    _APP_DeviceCustomHIDInitialize->_USBEnableEndpoint
    _USBEnableEndpoint->_USBConfigureEndpoint
    _USBCtrlTrfOutHandler->_USBCtrlTrfRxService
    _USBCtrlTrfInHandler->_USBCtrlTrfTxService

Critical Paths under _main in BANK0

    _main->_USBTransferOnePacket
    _USBDeviceInit->_memset

Critical Paths under _pwm_low_priority in BANK0

    _pwm_low_priority->_Update_PWM

Critical Paths under _SYS_InterruptHigh in BANK0

    None.

Critical Paths under _main in BANK1

    None.

Critical Paths under _pwm_low_priority in BANK1

    None.

Critical Paths under _SYS_InterruptHigh in BANK1

    None.

Critical Paths under _main in BANK2

    None.

Critical Paths under _pwm_low_priority in BANK2

    None.

Critical Paths under _SYS_InterruptHigh in BANK2

    None.

Critical Paths under _main in BANK3

    None.

Critical Paths under _pwm_low_priority in BANK3

    None.

Critical Paths under _SYS_InterruptHigh in BANK3

    None.

Critical Paths under _main in BANK4

    None.

Critical Paths under _pwm_low_priority in BANK4

    None.

Critical Paths under _SYS_InterruptHigh in BANK4

    None.

Critical Paths under _main in BANK5

    None.

Critical Paths under _pwm_low_priority in BANK5

    None.

Critical Paths under _SYS_InterruptHigh in BANK5

    None.

Critical Paths under _main in BANK6

    None.

Critical Paths under _pwm_low_priority in BANK6

    None.

Critical Paths under _SYS_InterruptHigh in BANK6

    None.

Critical Paths under _main in BANK7

    None.

Critical Paths under _pwm_low_priority in BANK7

    None.

Critical Paths under _SYS_InterruptHigh in BANK7

    None.

Call Graph Tables:

 ---------------------------------------------------------------------------------
 (Depth) Function   	        Calls       Base Space   Used Autos Params    Refs
 ---------------------------------------------------------------------------------
 (0) _main                                                 0     0      0    2516
                           _Init_PWM
              _PIC18F4550_Initialize
                    _USBDeviceAttach
                      _USBDeviceInit
               _USBTransferOnePacket
                        _Update_Duty
 ---------------------------------------------------------------------------------
 (1) _Update_Duty                                          3     1      2     301
                                              5 BANK0      3     1      2
 ---------------------------------------------------------------------------------
 (1) _USBTransferOnePacket                                11     7      4     832
                                              5 BANK0     11     7      4
 ---------------------------------------------------------------------------------
 (1) _USBDeviceInit                                        1     1      0    1361
                                             13 BANK0      1     1      0
                             _memset
 ---------------------------------------------------------------------------------
 (2) _memset                                               8     2      6    1070
                                              5 BANK0      8     2      6
 ---------------------------------------------------------------------------------
 (1) _USBDeviceAttach                                      0     0      0       0
 ---------------------------------------------------------------------------------
 (1) _PIC18F4550_Initialize                                1     1      0      22
                                              5 BANK0      1     1      0
 ---------------------------------------------------------------------------------
 (1) _Init_PWM                                             0     0      0       0
 ---------------------------------------------------------------------------------
 Estimated maximum stack depth 2
 ---------------------------------------------------------------------------------
 (Depth) Function   	        Calls       Base Space   Used Autos Params    Refs
 ---------------------------------------------------------------------------------
 (3) _pwm_low_priority                                     3     3      0       0
                                              2 BANK0      3     3      0
                         _Update_PWM
 ---------------------------------------------------------------------------------
 (4) _Update_PWM                                           2     2      0       0
                                              0 BANK0      2     2      0
 ---------------------------------------------------------------------------------
 Estimated maximum stack depth 4
 ---------------------------------------------------------------------------------
 (Depth) Function   	        Calls       Base Space   Used Autos Params    Refs
 ---------------------------------------------------------------------------------
 (5) _SYS_InterruptHigh                                   10    10      0   29086
                                             31 COMRAM    10    10      0
                     _USBDeviceTasks
 ---------------------------------------------------------------------------------
 (6) _USBDeviceTasks                                       1     1      0   29086
                                             30 COMRAM     1     1      0
          _USBCtrlEPAllowStatusStage
                   _USBCtrlEPService
      _USBIncrement1msInternalTimers
                    _USBStallHandler
                         _USBSuspend
                 _USBWakeFromSuspend
    _USER_USB_CALLBACK_EVENT_HANDLER
                    i2_USBDeviceInit
 ---------------------------------------------------------------------------------
 (7) i2_USBDeviceInit                                      1     1      0     610
                                              8 COMRAM     1     1      0
                           i2_memset
 ---------------------------------------------------------------------------------
 (7) _USBWakeFromSuspend                                   0     0      0    3812
    _USER_USB_CALLBACK_EVENT_HANDLER
 ---------------------------------------------------------------------------------
 (7) _USBSuspend                                           0     0      0    3812
    _USER_USB_CALLBACK_EVENT_HANDLER
 ---------------------------------------------------------------------------------
 (7) _USBStallHandler                                      1     1      0       0
                                              0 COMRAM     1     1      0
 ---------------------------------------------------------------------------------
 (7) _USBIncrement1msInternalTimers                        0     0      0       0
 ---------------------------------------------------------------------------------
 (7) _USBCtrlEPService                                     1     1      0   16994
                                             29 COMRAM     1     1      0
                _USBCtrlTrfInHandler
               _USBCtrlTrfOutHandler
             _USBCtrlTrfSetupHandler
                             _memcpy
 ---------------------------------------------------------------------------------
 (8) _memcpy                                              11     5      6     410
                                              0 COMRAM    11     5      6
 ---------------------------------------------------------------------------------
 (8) _USBCtrlTrfSetupHandler                               0     0      0   16355
                 _USBCheckStdRequest
           _USBCtrlEPServiceComplete
    _USER_USB_CALLBACK_EVENT_HANDLER
 ---------------------------------------------------------------------------------
 (9) _USBCtrlEPServiceComplete                             0     0      0      92
            _USBCtrlEPAllowDataStage
          _USBCtrlEPAllowStatusStage
 ---------------------------------------------------------------------------------
 (10) _USBCtrlEPAllowDataStage                             0     0      0      92
                _USBCtrlTrfTxService
 ---------------------------------------------------------------------------------
 (9) _USBCheckStdRequest                                   0     0      0   12451
            _USBStdFeatureReqHandler
                _USBStdGetDscHandler
             _USBStdGetStatusHandler
                _USBStdSetCfgHandler
    _USER_USB_CALLBACK_EVENT_HANDLER
 ---------------------------------------------------------------------------------
 (10) _USBStdSetCfgHandler                                 1     1      0    4310
                                             22 COMRAM     1     1      0
    _USER_USB_CALLBACK_EVENT_HANDLER
                           i2_memset
 ---------------------------------------------------------------------------------
 (8) i2_memset                                             8     2      6     408
                                              0 COMRAM     8     2      6
 ---------------------------------------------------------------------------------
 (10) _USBStdGetStatusHandler                              3     3      0      46
                                              0 COMRAM     3     3      0
 ---------------------------------------------------------------------------------
 (10) _USBStdGetDscHandler                                 2     2      0       0
                                              0 COMRAM     2     2      0
 ---------------------------------------------------------------------------------
 (10) _USBStdFeatureReqHandler                             7     7      0    4283
                                             22 COMRAM     7     7      0
    _USER_USB_CALLBACK_EVENT_HANDLER
 ---------------------------------------------------------------------------------
 (7) _USER_USB_CALLBACK_EVENT_HANDLER                      8     2      6    3812
                                             14 COMRAM     8     2      6
      _APP_DeviceCustomHIDInitialize
                 _USBCheckHIDRequest
            i2_PIC18F4550_Initialize
 ---------------------------------------------------------------------------------
 (8) i2_PIC18F4550_Initialize                              1     1      0      22
                                              0 COMRAM     1     1      0
 ---------------------------------------------------------------------------------
 (8) _USBCheckHIDRequest                                   0     0      0       0
 ---------------------------------------------------------------------------------
 (8) _APP_DeviceCustomHIDInitialize                        0     0      0    1098
                  _USBEnableEndpoint
             i2_USBTransferOnePacket
 ---------------------------------------------------------------------------------
 (9) i2_USBTransferOnePacket                              11     7      4     454
                                              0 COMRAM    11     7      4
 ---------------------------------------------------------------------------------
 (9) _USBEnableEndpoint                                    4     3      1     644
                                             10 COMRAM     4     3      1
               _USBConfigureEndpoint
 ---------------------------------------------------------------------------------
 (10) _USBConfigureEndpoint                               10     9      1     400
                                              0 COMRAM    10     9      1
 ---------------------------------------------------------------------------------
 (8) _USBCtrlTrfOutHandler                                 0     0      0     114
                _USBCtrlTrfRxService
 ---------------------------------------------------------------------------------
 (9) _USBCtrlTrfRxService                                  2     2      0     114
                                              0 COMRAM     2     2      0
          _USBCtrlEPAllowStatusStage
 ---------------------------------------------------------------------------------
 (10) _USBCtrlEPAllowStatusStage                           0     0      0       0
 ---------------------------------------------------------------------------------
 (8) _USBCtrlTrfInHandler                                  1     1      0     115
                                              1 COMRAM     1     1      0
                _USBCtrlTrfTxService
 ---------------------------------------------------------------------------------
 (11) _USBCtrlTrfTxService                                 1     1      0      92
                                              0 COMRAM     1     1      0
 ---------------------------------------------------------------------------------
 Estimated maximum stack depth 11
 ---------------------------------------------------------------------------------

 Call Graph Graphs:

 _main (ROOT)
   _Init_PWM
   _PIC18F4550_Initialize
   _USBDeviceAttach
   _USBDeviceInit
     _memset
   _USBTransferOnePacket
   _Update_Duty

 _pwm_low_priority (ROOT)
   _Update_PWM

 _SYS_InterruptHigh (ROOT)
   _USBDeviceTasks
     _USBCtrlEPAllowStatusStage
     _USBCtrlEPService
       _USBCtrlTrfInHandler
         _USBCtrlTrfTxService
       _USBCtrlTrfOutHandler
         _USBCtrlTrfRxService
           _USBCtrlEPAllowStatusStage
       _USBCtrlTrfSetupHandler
         _USBCheckStdRequest
           _USBStdFeatureReqHandler
             _USER_USB_CALLBACK_EVENT_HANDLER
               _APP_DeviceCustomHIDInitialize
                 _USBEnableEndpoint
                   _USBConfigureEndpoint
                 i2_USBTransferOnePacket
               _USBCheckHIDRequest
               i2_PIC18F4550_Initialize
           _USBStdGetDscHandler
           _USBStdGetStatusHandler
           _USBStdSetCfgHandler
             _USER_USB_CALLBACK_EVENT_HANDLER
             i2_memset
           _USER_USB_CALLBACK_EVENT_HANDLER
         _USBCtrlEPServiceComplete
           _USBCtrlEPAllowDataStage
             _USBCtrlTrfTxService
           _USBCtrlEPAllowStatusStage
         _USER_USB_CALLBACK_EVENT_HANDLER
       _memcpy
     _USBIncrement1msInternalTimers
     _USBStallHandler
     _USBSuspend
       _USER_USB_CALLBACK_EVENT_HANDLER
     _USBWakeFromSuspend
       _USER_USB_CALLBACK_EVENT_HANDLER
     _USER_USB_CALLBACK_EVENT_HANDLER
     i2_USBDeviceInit
       i2_memset

 Address spaces:
Name               Size   Autos  Total    Cost      Usage
BIGRAMl            3FF      0       0      31        0.0%
BIGRAMhh           280      0       0      29        0.0%
EEDATA             100      0       0       0        0.0%
BITBANK7           100      0       0      19        0.0%
BANK7              100      0       0      20        0.0%
BITBANK6           100      0       0      17        0.0%
BANK6              100      0       0      18        0.0%
BITBANK3           100      0       0      10        0.0%
BANK3              100      0       0      11        0.0%
BITBANK2           100      0       0       8        0.0%
BANK2              100      0       0       9        0.0%
BITBANK1           100      0       0       6        0.0%
BANK1              100      0       0       7        0.0%
BIGRAMhl            D0      0       0      30        0.0%
BITBANK4            D0      0       0      12        0.0%
BANK4               D0      0       0      13        0.0%
BITBANK0            A0      0       0       4        0.0%
BANK0               A0     10      2A       5       26.2%
BITBANK5            80      0       0      15        0.0%
BANK5               80      0       0      16        0.0%
BITCOMRAM           5E      0       0       0        0.0%
COMRAM              5E     29      4F       1       84.0%
BITBIGSFRhll        27      0       0      24        0.0%
BITBIGSFRhhl        21      0       0      22        0.0%
BITBIGSFRlhhll      19      0       0      27        0.0%
BITBIGSFRhhh         D      0       0      21        0.0%
BITBIGSFRlhhlh       8      0       0      26        0.0%
BITBIGSFRlhhhl       8      0       0      25        0.0%
BITBIGSFRlll         8      0       0      28        0.0%
BITBIGSFRhlh         4      0       0      23        0.0%
BIGSFR               0      0       0     200        0.0%
BITSFR               0      0       0     200        0.0%
SFR                  0      0       0     200        0.0%
STACK                0      0       0       2        0.0%
NULL                 0      0       0       0        0.0%
ABS                  0      0      79      14        0.0%
DATA                 0      0      79       3        0.0%
CODE                 0      0       0       0        0.0%


Microchip Technology PIC18 Macro Assembler V2.41 build 20230208172133 
Symbol Table                                                                                   Wed Jun 14 01:18:26 2023

                             _USB_SD_Ptr 0801                                       bsr 0FE0  
                          _USBDeviceInit 14BE                       _USBCheckHIDRequest 0FAC  
   USER_USB_CALLBACK_EVENT_HANDLER@event 000F     USER_USB_CALLBACK_EVENT_HANDLER@pdata 0011  
                                    l216 2552                                      l217 2550  
                                    l161 15FA                                      l219 2564  
                                    l156 1526              __end_of_USBStdGetDscHandler 0FAC  
                                    l197 137A                                      l573 26A6  
                                    l557 271E                                      l576 2760  
                                    _BDT 0400                                      _PR2 0FCB  
                                    _UIE 0F69                                      _UIR 0F68  
                             _USBSuspend 26A8                     USBStdSetCfgHandler@i 0017  
                                    prod 0FF3                                      wreg 0FE8  
                         _USBDeviceTasks 0C24                      ?_USBCheckHIDRequest 0001  
                         _USBDeviceState 004A                    ??_USBCtrlTrfRxService 0001  
               USBEnableEndpoint@options 000B                                     l1276 25DC  
             USBConfigureEndpoint@handle 0009                                     l3600 12C6  
                                   l3610 1338                                     l3602 12D2  
                                   l3612 1372                                     l3604 12DE  
                                   l3710 25BC                                     l3606 12EA  
                                   l3800 254A                                     l3712 25C0  
                                   l3720 14EA                                     l3608 12FA  
                                   l3810 267A                                     l3802 2560  
                                   l3706 25A4                                     l3722 14EE  
                                   l3714 14BE                                     l3820 269A  
                                   l3812 2680                                     l3804 26FE  
                                   l3708 25B0                                     l3740 152C  
                                   l3732 14FC                                     l3724 14F2  
                                   l3716 14C0                                     l3822 26A4  
                                   l3814 2694                                     l3750 153A  
                                   l3742 152E                                     l3734 1514  
                                   l3726 14F6                                     l3718 14CC  
                                   l3590 126C                                     l3830 275C  
                                   l3816 2696                                     l3808 26FE  
                                   l3760 1568                                     l3752 1542  
                                   l3744 1530                                     l3736 1516  
                                   l3592 1284                                     l3824 2746  
                                   l3818 2698                                     l3770 15BE  
                                   l3762 1590                                     l3754 1550  
                                   l3746 1532                                     l3738 1528  
                                   l3594 1296                                     l3586 123E  
                                   l3826 2752                                     l3780 15DC  
                                   l3772 15C6                                     l3764 159E  
                                   l3748 1536                                     l3588 1250  
                                   l3828 2758                                     l3790 2520  
                                   l3782 15DE                                     l3774 15CA  
                                   l3766 15AC                                     l3598 12A2  
                                   l3870 23D6                                     l3792 2530  
                                   l3784 15E2                                     l3776 15D4  
                                   l3768 15AE                                     l3880 2414  
                                   l3872 23DA                                     l3794 2544  
                                   l3786 15F2                                     l3778 15D8  
                                   l3874 23DE                                     l3796 2546  
                                   l3788 15F6                                     l3876 23E2  
                                   l3868 23D0                                     l3798 2548  
                                   l3878 2402                                     u2700 1550  
                                   u2620 1250                                     u2701 154C  
                                   u2621 124C                                     u2710 15BE  
                                   u2630 1296                                     u2711 15BA  
                                   u2631 1292                                     u2720 2530  
                                   u2640 12FA                                     u2721 252C  
                                   u2641 12F6                                     u2730 2560  
                                   u2731 255C                                     u2680 25DC  
                                   u2840 2414                                     u2681 25D8  
                                   u2841 2410                                     u2690 1526  
                                   u2691 1522                    ??_USBCtrlTrfTxService 0001  
                                   _UCFG 0F6F                                     _UEP0 0F70  
                                   _UEP1 0F71                                     _UEIE 0F6B  
                                   _UEIR 0F6A                                     _UCON 0F6D  
 USBStdFeatureReqHandler@current_ep_data 001B                                     _pDst 0034  
                                   _main 23D0                 ??i2_USBTransferOnePacket 0005  
                                   fsr1h 0FE2                                     fsr2h 0FDA  
                                   indf1 0FE7                                     indf2 0FDF  
                                   fsr1l 0FE1                                     fsr2l 0FD9  
                        _USBDeviceAttach 2520                                     btemp 0050  
                                   prodh 0FF4                                     prodl 0FF3  
                                   start 004A                     ??_USBCheckHIDRequest 0001  
             __end_of_USBCheckStdRequest 1AB6                   ??_USBCtrlTrfOutHandler 0003  
                           ___param_bank 0000                ??_USBStdFeatureReqHandler 0017  
                           _USBOutHandle 0032                 ??_USBStdGetStatusHandler 0001  
                         ?_USBDeviceInit 0001                                    ?_main 0001  
                 __end_of_USBDeviceTasks 0E4C                                    _T2CON 0FCA  
              ?_USBCtrlEPServiceComplete 0001                                    i1l602 19A2  
                                  i2l300 0FAA                                    i2l223 1ECC  
                                  i2l304 1BD4                                    i2l320 23CE  
                                  i2l401 0B84                                    i2l233 211E  
                                  i2l241 1418                                    i2l161 1738  
                                  i2l410 2646                                    i2l227 1ECC  
                                  i2l315 1CD2                                    i2l307 1CB4  
                                  i2l251 14BC                                    i2l323 26D2  
                                  i2l308 1BF0                                    i2l340 22FA  
                                  i2l156 1660                                    i2l405 0C22  
                                  i2l309 1BF8                                    i2l238 21CE  
                                  i2l318 23CC                                    i1l582 003A  
                                  i2l191 251E                                    i2l167 0C84  
                                  i2l360 1DD6                                    i2l168 0E4A  
                                  i2l361 1DDC                                    i2l353 1DC6  
                                  i2l433 10F4                                    i2l337 206A  
                                  i2l329 25A2                                    i2l177 0DA0  
                                  i1l593 1928                                    i2l266 1BC4  
                                  i2l178 0E48                                    i2l347 236E  
                                  i2l179 0DB2                                    i1l588 18D2  
                                  i2l277 1222                                    i2l197 1876  
                                  i2l365 1AB4                                    i2l382 0912  
                                  i2l286 1FB2                                    i1l598 197E  
                                  i2l279 1238                                    i2l519 2678  
                                  i2l471 226A                                    i2l367 19C0  
                                  i2l376 1A1C                                    i2l393 0AD6  
                                  i2l562 2458                                    i2l557 2740  
                                  _UADDR 0F6E                                    _USTAT 0F6C  
        __end_of_USBCtrlEPAllowDataStage 2120                                    _sd000 08C3  
                                  _sd001 0809                                    _sd002 083D  
         ?_USBIncrement1msInternalTimers 0001                               i2memset@p1 0001  
                                  _count 002E                                    tablat 0FF5  
                                  plusw2 0FDB                                    ttemp5 0051  
                                  ttemp6 0054                                    ttemp7 0058  
                                  status 0FD8                                    wtemp8 0051  
                       __end_ofi2_memset 2616                      Update_Duty@red_Duty 0081  
                        __initialization 26D4                             __end_of_main 242A  
                       __end_of_Init_PWM 26A8                                   ??_main 008A  
                          __activetblptr 0002                          ?_USBDeviceTasks 0001  
                            ?_USBSuspend 0001                  __end_of_USBDeviceAttach 2566  
                                 i2l3000 0AFC                                   i2l3010 0B56  
                                 i2l3002 0B12                                   i2l3100 1174  
                                 i2l3020 0BC8                                   i2l3012 0B60  
                                 i2l3004 0B1E                                   i2l3110 11D6  
                                 i2l3102 1198                                   i2l3022 0BD4  
                                 i2l3014 0B6E                                   i2l3006 0B2A  
                                 i2l3030 137C                                   i2l1270 24D2  
                                 i2l3120 1224                                   i2l3104 11AE  
                                 i2l3112 11E6                                   i2l3200 22FC  
                                 i2l3016 0B94                                   i2l3024 0BF4  
                                 i2l3008 0B4A                                   i2l3040 13B8  
                                 i2l3032 138E                                   i1l3840 18BC  
                                 i1l3832 1878                                   i2l3122 1234  
                                 i2l3114 120A                                   i2l3106 11BA  
                                 i2l3210 235A                                   i2l3202 230E  
                                 i2l3026 0C00                                   i2l3018 0BB0  
                                 i2l3130 19CC                                   i2l3050 1428  
                                 i2l3034 139C                                   i2l3042 13C0  
                                 i1l3850 1912                                   i1l3842 18CC  
                                 i1l3834 188E                                   i2l3220 1D02  
                                 i2l3116 1216                                   i2l3108 11CA  
                                 i2l3212 236A                                   i2l3204 2316  
                                 i2l3028 0C16                                   i2l1276 2614  
                                 i2l3140 19EC                                   i2l3132 19D4  
                                 i2l3124 19A4                                   i2l3060 1458  
                                 i2l3052 143C                                   i2l3044 13E4  
                                 i2l3036 13B0                                   i2l3300 237E  
                                 i1l3860 1968                                   i1l3852 1922  
                                 i1l3844 18D8                                   i1l3836 1896  
                                 i2l3230 1D36                                   i2l3222 1D0A  
                                 i2l3214 1CD4                                   i2l3118 1222  
                                 i2l3206 232A                                   i2l3150 1A12  
                                 i2l3142 19F2                                   i2l3134 19DC  
                                 i2l3070 1494                                   i2l3054 1440  
                                 i2l3062 1460                                   i2l3046 13F0  
                                 i2l3038 13B4                                   i2l3310 1FB4  
                                 i2l3302 2398                                   i1l3862 1978  
                                 i1l3854 192E                                   i1l3846 18F4  
                                 i1l3838 189E                                   i2l3240 1D7E  
                                 i2l3232 1D4C                                   i2l3224 1D1A  
                                 i2l3216 1CE6                                   i2l3080 10F6  
                                 i2l3208 234E                                   i2l2600 21C0  
                                 i2l3152 1A16                                   i2l3144 19FA  
                                 i2l3136 19E6                                   i2l3128 19C4  
                                 i2l3160 1A56                                   i2l3072 14A0  
                                 i2l3064 1464                                   i2l3056 1444  
                                 i2l3048 1408                                   i2l3320 1FFC  
                                 i2l3312 1FB8                                   i2l3304 23B2  
                                 i2l3400 171C                                   i1l3864 1984  
                                 i1l3856 194A                                   i1l3848 18F6  
                                 i2l3250 1DD6                                   i2l3242 1D8E  
                                 i2l3234 1D50                                   i2l3226 1D22  
                                 i2l3218 1CF0                                   i2l3090 1132  
                                 i2l3082 1106                                   i2l2610 2506  
                                 i2l2602 24D6                                   i2l3154 1A20  
                                 i2l3146 1A02                                   i2l3138 19E8  
                                 i2l3074 14A4                                   i2l3066 1474  
                                 i2l3058 1448                                   i2l3170 24B4  
                                 i2l3162 2484                                   i2l3330 2066  
                                 i2l3322 201A                                   i2l3314 1FCE  
                                 i2l3306 23BE                                   i2l3402 1720  
                                 i1l3866 19A0                                   i1l3858 194C  
                                 i1l3882 0026                                   i2l3252 1DD8  
                                 i2l3244 1D9A                                   i2l3236 1D62  
                                 i2l3228 1D26                                   i2l3092 114A  
                                 i2l3084 111E                                   i2l2612 2512  
                                 i2l2604 24E4                                   i2l2620 1780  
                                 i2l2700 10BE                                   i2l3156 1A36  
                                 i2l3148 1A10                                   i2l3076 14A8  
                                 i2l3068 1488                                   i2l3180 229C  
                                 i2l3164 2498                                   i2l3172 24B8  
                                 i2l3324 2042                                   i2l3316 1FEA  
                                 i2l3308 23CA                                   i2l3404 1730  
                                 i2l3340 162A                                   i2l3332 15FC  
                                 i2l3500 0C6C                                   i1l3884 0034  
                                 i2l3246 1DAA                                   i2l3238 1D6E  
                                 i2l3094 114E                                   i2l3086 1122  
                                 i2l2606 24EE                                   i2l2630 17CE  
                                 i2l2622 1792                                   i2l2614 173C  
                                 i2l2702 2648                                   i2l3190 22CA  
                                 i2l3182 22A8                                   i2l3174 226C  
                                 i2l3166 24A4                                   i2l3326 204A  
                                 i2l3318 1FF2                                   i2l3270 258E  
                                 i2l3262 2566                                   i2l3406 1734  
                                 i2l3350 1636                                   i2l3342 162E  
                                 i2l3334 15FE                                   i2l3510 0CA4  
                                 i2l3502 0C70                                   i1l3886 0038  
                                 i2l3248 1DB6                                   i2l2800 1E34  
                                 i2l3096 1150                                   i2l3088 112A  
                                 i2l2608 24FC                                   i2l2640 186E  
                                 i2l2632 17DA                                   i2l2616 174C  
                                 i2l2704 2650                                   i2l2712 2722  
                                 i2l2720 21E8                                   i2l3192 22CE  
                                 i2l3184 22B2                                   i2l3176 2284  
                                 i2l3168 24A8                                   i2l3328 2052  
                                 i2l3280 26AC                                   i2l3272 2590  
                                 i2l3264 256A                                   i2l3360 1668  
                                 i2l3352 164E                                   i2l3344 1632  
                                 i2l3336 160A                                   i2l3520 0CC8  
                                 i2l3512 0CA6                                   i2l3504 0C7E  
                                 i2l2810 1E7C                                   i2l2802 1E44  
                                 i2l3098 1162                                   i2l2634 17E6  
                                 i2l2626 179E                                   i2l2618 1768  
                                 i2l2706 265A                                   i2l2722 21F0  
                                 i2l2714 21D0                                   i2l3194 22D6  
                                 i2l3186 22BE                                   i2l3178 2290  
                                 i2l3290 2622                                   i2l3282 26AE  
                                 i2l3274 259E                                   i2l3266 2586  
                                 i2l3370 167E                                   i2l3362 166A  
                                 i2l3354 1650                                   i2l3338 1626  
                                 i2l3530 0D06                                   i2l3522 0CCC  
                                 i2l3514 0CAA                                   i2l3506 0C92  
                                 i2l2740 1AD2                                   i2l2820 1EBC  
                                 i2l2812 1E88                                   i2l2804 1E54  
                                 i2l2636 17F6                                   i2l2628 17C2  
                                 i2l2660 100A                                   i2l2652 0FDA  
                                 i2l2644 0FAC                                   i2l2708 2722  
                                 i2l2716 21D4                                   i2l2900 0F1C  
                                 i2l3196 22DA                                   i2l3188 22C2  
                                 i2l3292 2632                                   i2l3284 26B2  
                                 i2l3276 26A8                                   i2l3268 2588  
                                 i2l3380 16CC                                   i2l3372 168C  
                                 i2l3364 166C                                   i2l3356 1662  
                                 i2l3532 0D0A                                   i2l3524 0CDA  
                                 i2l3540 0D30                                   i2l3508 0CA0  
                                 i2l3516 0CAC                                   i2l2742 1AD6  
                                 i2l2750 1B02                                   i2l2814 1E94  
                                 i2l2806 1E58                                   i2l2590 2168  
                                 i2l2638 1834                                   i2l2662 1012  
                                 i2l2718 21DE                                   i2l2726 21F8  
                                 i2l2902 0F2C                                   i2l2830 20B6  
                                 i2l2822 206C                                   i2l3198 22F6  
                                 i2l3294 2634                                   i2l3286 26B6  
                                 i2l3278 26AA                                   i2l3390 1704  
                                 i2l3382 16DA                                   i2l3366 1672  
                                 i2l3358 1666                                   i2l3550 0D6C  
                                 i2l3542 0D3E                                   i2l3534 0D1A  
                                 i2l3526 0CE8                                   i2l3518 0CBA  
                                 i2l2760 1B34                                   i2l2752 1B0A  
                                 i2l2744 1AE6                                   i2l2736 1AB6  
                                 i2l2816 1E98                                   i2l2808 1E68  
                                 i2l2592 2172                                   i2l2680 1078  
                                 i2l2664 101A                                   i2l2656 0FF0  
                                 i2l2672 1034                                   i2l2648 0FC6  
                                 i2l2904 0F48                                   i2l2912 0F8A  
                                 i2l2920 1BE8                                   i2l2840 2106  
                                 i2l2832 20C6                                   i2l2824 2074  
                                 i2l3296 2644                                   i2l3288 2616  
                                 i2l3392 1708                                   i2l3384 16E8  
                                 i2l3368 1676                                   i2l3552 0D86  
                                 i2l3544 0D4C                                   i2l3536 0D1C  
                                 i2l3528 0D04                                   i2l2770 1B7E  
                                 i2l2762 1B5E                                   i2l2754 1B1A  
                                 i2l2746 1AEE                                   i2l2738 1ABA  
                                 i2l2818 1EA8                                   i2l2594 2182  
                                 i2l2586 2122                                   i2l2690 10A0  
                                 i2l2682 1080                                   i2l2666 1024  
                                 i2l2658 1000                                   i2l2674 1052  
                                 i2l2906 0F76                                   i2l2930 1C60  
                                 i2l2922 1BFC                                   i2l2914 1BC6  
                                 i2l2850 1F0C                                   i2l2842 2112  
                                 i2l2834 20E4                                   i2l2826 2086  
                                 i2l3298 2370                                   i2l3394 1712  
                                 i2l3386 16EA                                   i2l3378 16A4  
                                 i2l3570 0DD0                                   i2l3554 0D8A  
                                 i2l3546 0D50                                   i2l3538 0D2C  
                                 i2l3490 0C46                                   i2l2772 1BA8  
                                 i2l2764 1B64                                   i2l2756 1B22  
                                 i2l2748 1AFE                                   i2l2596 219E  
                                 i2l2588 212A                                   i2l2692 10A8  
                                 i2l2684 1088                                   i2l2668 102C  
                                 i2l2908 0F80                                   i2l2940 1CC4  
                                 i2l2932 1C76                                   i2l2924 1C12  
                                 i2l2780 25DE                                   i2l2860 1F2E  
                                 i2l2844 1ECE                                   i2l2836 20EC  
                                 i2l2828 20AA                                   i2l3396 1716  
                                 i2l3388 16FA                                   i2l3580 0E1A  
                                 i2l3572 0DDE                                   i2l3564 0DC0  
                                 i2l3556 0D9A                                   i2l3548 0D5E  
                                 i2l3492 0C48                                   i2l3484 0C24  
                                 i2l2774 1BAE                                   i2l2766 1B68  
                                 i2l2790 1DEE                                   i2l2598 21B6  
                                 i2l2694 10B0                                   i2l2686 108E  
                                 i2l2678 106E                                   i2l2950 08EE  
                                 i2l2942 1CCC                                   i2l2934 1C8C  
                                 i2l2926 1C20                                   i2l2918 1BD8  
                                 i2l2782 25EA                                   i2l2870 1F6E  
                                 i2l2862 1F3E                                   i2l2846 1ED2  
                                 i2l2838 20F0                                   i2l3398 171A  
                                 i2l3582 0E36                                   i2l3574 0DF2  
                                 i2l3566 0DC4                                   i2l3558 0DAE  
                                 i2l3486 0C34                                   i2l3494 0C4E  
                                 i2l2776 1BB2                                   i2l2768 1B6A  
                                 i2l2792 1E02                                   i2l2696 10B6  
                                 i2l2688 1096                                   i2l2960 0936  
                                 i2l2952 08F2                                   i2l2944 1CCE  
                                 i2l2928 1C42                                   i2l2784 25F6  
                                 i2l2880 1FAE                                   i2l2872 1F76  
                                 i2l2864 1F5A                                   i2l2856 1F10  
                                 i2l2848 1F0A                                   i2l3584 0E38  
                                 i2l3576 0E02                                   i2l3568 0DCE  
                                 i2l3496 0C5C                                   i2l3488 0C42  
                                 i2l3664 2454                                   i2l2778 1BB4  
                                 i2l2794 1E06                                   i2l3930 225C  
                                 i2l2970 09A4                                   i2l2962 094A  
                                 i2l2954 0906                                   i2l2946 08C8  
                                 i2l2890 0E80                                   i2l2882 0E4C  
                                 i2l2938 1C94                                   i2l2786 25FA  
                                 i2l2874 1F7A                                   i2l2866 1F5C  
                                 i2l2858 1F2C                                   i2l3578 0E12  
                                 i2l3498 0C6A                                   i2l2796 1E18  
                                 i2l2788 1DDE                                   i2l2980 0A14  
                                 i2l2972 09C0                                   i2l2964 0960  
                                 i2l2956 090E                                   i2l2948 08DA  
                                 i2l2892 0E90                                   i2l2884 0E60  
                                 i2l2876 1F8A                                   i2l2868 1F66  
                                 i2l2798 1E28                                   i2l2990 0A7E  
                                 i2l2982 0A1E                                   i2l2974 09DE  
                                 i2l2966 0972                                   i2l2958 0922  
                                 i2l2894 0EAC                                   i2l2886 0E6A  
                                 i2l2878 1F92                                   i2l3928 2216  
                                 i2l2992 0A94                                   i2l2984 0A2C  
                                 i2l2976 09F6                                   i2l2968 0986  
                                 i2l2896 0EDE                                   i2l2888 0E74  
                                 i2l2994 0AA2                                   i2l2986 0A4E  
                                 i2l2978 0A04                                   i2l2898 0F12  
                                 i2l2996 0ABE                                   i2l2988 0A6C  
                                 i2l2998 0AF2          ??_APP_DeviceCustomHIDInitialize 000F  
               i2USBTransferOnePacket@ep 0009                        ??i2_USBDeviceInit 0009  
                      _shortPacketStatus 0049            __end_of_PIC18F4550_Initialize 2720  
                        USBDeviceTasks@i 001F              USBStdFeatureReqHandler@pUEP 0019  
               USBTransferOnePacket@data 0080               USBCtrlTrfInHandler@lastDTS 0002  
                        ??_USBDeviceInit 0087             i2PIC18F4550_Initialize@state 0001  
                      _USBEnableEndpoint 24D4                                   _memcpy 2484  
                                 _duty_B 003A                                   _duty_G 003B  
                                 _memset 25A4                                   _duty_R 003C  
                                 clear_0 26DA                                   clear_1 26E6  
                                 isa$std 0001                     Update_Duty@blue_Duty 0080  
                     ?_USBEnableEndpoint 000B                               _Update_PWM 1878  
                           __mediumconst 0000                                   tblptrh 0FF7  
                                 tblptrl 0FF6                                   tblptru 0FF8  
                    ??_USBEnableEndpoint 000C                              _CtrlTrfData 0428  
               ?i2_PIC18F4550_Initialize 0001                     _controlTransferState 0048  
                             __accesstop 0060                  __end_of__initialization 26EC  
                          ??_Update_Duty 0081                            ___rparam_used 0001  
                         __pcstackCOMRAM 0001                __end_of_USBEnableEndpoint 2520  
                          __end_of_sd000 08C7                            __end_of_sd001 083D  
                          __end_of_sd002 086B                          _active_protocol 004B  
             PIC18F4550_Initialize@state 007F              __end_of_USBCtrlTrfInHandler 1DDE  
                 i2_USBTransferOnePacket 173A                                ?i2_memset 0001  
               ??_USBCtrlTrfSetupHandler 001E                  _USBTicksSinceSuspendEnd 003D  
                       ?_USBDeviceAttach 0001                   _USBStdGetStatusHandler 1BC6  
                             __pbssBANK0 0060                                ?_Init_PWM 0001  
                            _pBDTEntryIn 006E         __end_of_USBCtrlEPServiceComplete 14BE  
  __end_of_APP_DeviceCustomHIDInitialize 267A            _APP_DeviceCustomHIDInitialize 2648  
                   USBCtrlTrfRxService@i 0001                      __end_of_Update_Duty 2762  
                                ?_memcpy 0001                                  ?_memset 007F  
                             _device_dsc 08B1                         _USBCtrlEPService 1FB4  
                             _ep_data_in 0078              __end_of_USBCtrlTrfRxService 123A  
                     _USBCheckStdRequest 19A4                        _configDescriptor1 086B  
                            ?_Update_PWM 0001                               ??i2_memset 0007  
            __end_of_USBCtrlTrfTxService 1BC6                      _USBStdSetCfgHandler 1ECE  
        __end_ofi2_PIC18F4550_Initialize 2742                      ?_USBCheckStdRequest 0001  
                                _UIEbits 0F69                                  _UIRbits 0F68  
                             ??_Init_PWM 007F                                  __Hparam 0000  
        ??_USBIncrement1msInternalTimers 0001                     ?_USBStdSetCfgHandler 0001  
                                __Lparam 0000                        __end_of_hid_rpt01 08B1  
                   ??_USBCheckStdRequest 001E                         _ToSendDataBuffer 0540  
                       ??_USBDeviceTasks 001F                        ??_USBStallHandler 0001  
                           __psmallconst 0800                                  __pcinit 26D4  
              __end_of_configDescriptor1 0894                                  __ramtop 0800  
                                __ptext0 23D0                                  __ptext1 2742  
                                __ptext2 123A                                  __ptext3 14BE  
                                __ptext4 25A4                                  __ptext5 2520  
                                __ptext6 26FA                                  __ptext7 267A  
                                __ptext9 1878                                  _inPipes 0068  
            _USBDeferOUTDataStagePackets 003E                             ??_USBSuspend 0017  
                              _T2CONbits 0FCA                         _pwm_low_priority 0018  
                        i2_USBDeviceInit 15FC                         i2USBDeviceInit@i 0009  
                     __end_of_USB_CD_Ptr 0809                           __pintcode_body 242A  
                   end_of_initialization 26EC                       __end_of_USB_SD_Ptr 0807  
                                memcpy@d 0007                                  memcpy@n 0005  
                                memcpy@s 0009                      _pBDTEntryEP0OutNext 0036  
                                memset@c 0081                                  memset@n 0083  
                                memset@p 0085                            __Lmediumconst 0000  
                                int_func 242A                          _USB1msTickCount 002A  
               ?_USBStdFeatureReqHandler 0001                              _Update_Duty 2742  
                  ??_USBStdSetCfgHandler 0017                       __end_of_USBSuspend 26D4  
                _USBCtrlEPAllowDataStage 206C                                  postdec2 0FDD  
                                postinc0 0FEE                                  postinc2 0FDE  
               _USBCtrlEPServiceComplete 137C                    Update_Duty@green_Duty 007F  
             _USBStatusStageEnabledFlag1 0041               _USBStatusStageEnabledFlag2 0040  
                     USBEnableEndpoint@p 000C                                _TRISCbits 0F94  
                     _ReceivedDataBuffer 0500                       _BothEP0OutUOWNsSet 0044  
              USBConfigureEndpoint@EPNum 0008               ?_USBCtrlEPAllowStatusStage 0001  
    USER_USB_CALLBACK_EVENT_HANDLER@size 0013                                _USTATcopy 004D  
           __end_of_USBTransferOnePacket 137C                   _USBCtrlTrfSetupHandler 226C  
                  _PIC18F4550_Initialize 26FA                  ?i2_USBTransferOnePacket 0001  
                  __end_of_USBDeviceInit 15FC    __end_of_USBIncrement1msInternalTimers 2648  
          _USBIncrement1msInternalTimers 2616                  __end_ofi2_USBDeviceInit 173A  
                              i2memset@c 0003                                i2memset@n 0005  
                              i2memset@p 0007                           __end_of_memcpy 24D4  
                         __end_of_memset 25DE                        _USBBusIsSuspended 0046  
                    start_initialization 26D4                  ?_USBStdGetStatusHandler 0001  
          USBCtrlTrfRxService@byteToRead 0002             __end_of_USBConfigureEndpoint 21D0  
        __end_of_USBStdFeatureReqHandler 0C24        __end_of_USBCtrlEPAllowStatusStage 1ECE  
               __end_of_USBCtrlEPService 206C                ??_USBCtrlEPAllowDataStage 0002  
                         USBDeviceInit@i 0087                   _pBDTEntryEP0OutCurrent 0038  
                USBTransferOnePacket@dir 007F                  USBTransferOnePacket@len 0082  
         __end_ofi2_USBTransferOnePacket 1878                      _USBStdGetDscHandler 0E4C  
                               ??_memcpy 0007                                 ??_memset 0085  
                 _USBActiveConfiguration 004F           __end_of_USBStdGetStatusHandler 1CD4  
                           ??_Update_PWM 007A                              __pbssCOMRAM 002A  
                          __pcstackBANK0 007A                     ?_USBStdGetDscHandler 0001  
             __end_of_USBWakeFromSuspend 25A4                          _USBStallHandler 2370  
                           _pBDTEntryOut 0072                 __end_of_pwm_low_priority 004A  
                 ?_PIC18F4550_Initialize 0001                       __end_of_Update_PWM 19A4  
                              __pintcode 0008                                _hid_rpt01 0894  
                            __pintcodelo 0018                                _idle_rate 004C  
                       ?i2_USBDeviceInit 0001                     _USBTransferOnePacket 123A  
                            __smallconst 0800             __end_of_USBCtrlTrfOutHandler 2370  
                  ??_USBStdGetDscHandler 0001                              _ep_data_out 0076  
          USBConfigureEndpoint@direction 0001                                 _LATCbits 0F8B  
             __end_of_USBCheckHIDRequest 10F6                             ?_Update_Duty 007F  
             ??_USBCtrlEPServiceComplete 0002                                 _IPR1bits 0F9F  
                               _IPR2bits 0FA2                                 _PIE1bits 0F9D  
                               _PIE2bits 0FA0                                 i1u280_20 194A  
                               i1u280_21 1946                                 i2u200_40 0B94  
                               i2u200_41 0B90                                 i1u281_20 1968  
                               i1u281_21 1964                                 i2u201_40 138E  
                               i2u201_41 138A                                 i1u282_20 1978  
                               i1u274_20 188E                                 i1u282_21 1974  
                               i1u274_21 188A                                 i2u210_40 1174  
                               i2u202_40 139C                                 i2u210_41 1170  
                               i2u202_41 1398                                 i1u283_20 19A0  
                               i1u275_20 18BC                                 i1u283_21 199C  
                               i1u275_21 18B8                                 i2u211_40 11AE  
                               i2u203_40 13B0                                 i2u211_41 11AA  
                               i2u203_41 13AC                                 i1u276_20 18CC  
                               i1u276_21 18C8                                 i2u220_40 1D62  
                               i2u212_40 1234                                 i2u204_40 1428  
                               i2u220_41 1D5E                                 i2u212_41 1230  
                               i2u204_41 1424                                 i1u277_20 18F4  
                               i1u285_20 0034                                 i1u277_21 18F0  
                               i1u285_21 0030                                 i2u221_40 1D8E  
                               i2u213_40 19BC                                 i2u205_40 143C  
                               i2u221_41 1D8A                                 i2u213_41 19B8  
                               i2u205_41 1438                                 i1u278_20 1912  
                               i1u278_21 190E                                 i2u222_40 1DD6  
                               i2u150_40 0FD6                                 i2u206_40 1458  
                               i2u214_40 24D2                                 i2u230_40 1FCE  
                               i2u222_41 1DD2                                 i2u150_41 0FD2  
                               i2u206_41 1454                                 i2u214_41 24CE  
                               i2u230_41 1FCA                                 i1u279_20 1922  
                               i1u279_21 191E                                 i2u215_40 230E  
                               i2u143_40 2182                                 i2u151_40 0FEC  
                               i2u207_40 14B8                                 i2u231_40 201A  
                               i2u215_41 230A                                 i2u143_41 217E  
                               i2u151_41 0FE8                                 i2u207_41 14B4  
                               i2u231_41 2016                                 i2u160_40 1BA6  
                               i2u208_40 111E                                 i2u216_40 232A  
                               i2u144_40 24E4                                 i2u152_40 1000  
                               i2u232_40 2066                                 i2u224_40 259E  
                               i2u240_40 0C42                                 i2u208_41 111A  
                               i2u216_41 2326                                 i2u144_41 24E0  
                               i2u152_41 0FFC                                 i2u232_41 2062  
                               i2u224_41 259A                                 i2u240_41 0C3E  
                               i2u160_47 1B9C                                 i2u161_40 1BC4  
                               i2u217_40 1D02                                 i2u209_40 1162  
                               i2u145_40 24FC                                 i2u153_40 106A  
                               i2u225_40 2632                                 i2u233_40 1660  
                               i2u241_40 0C5C                                 i2u161_41 1BC0  
                               i2u217_41 1CFE                                 i2u209_41 115E  
                               i2u145_41 24F8                                 i2u153_41 1066  
                               i2u225_41 262E                                 i2u233_41 165C  
                               i2u241_41 0C58                                 i2u154_40 1AD2  
                               i2u218_40 1D1A                                 i2u146_40 174C  
                               i2u162_40 2614                                 i2u170_40 1F8A  
                               i2u226_40 2644                                 i2u234_40 168C  
                               i2u250_40 0D1A                                 i2u242_40 0C6A  
                               i2u154_41 1ACE                                 i2u218_41 1D16  
                               i2u146_41 1748                                 i2u162_41 2610  
                               i2u170_41 1F86                                 i2u226_41 2640  
                               i2u234_41 1688                                 i2u250_41 0D16  
                               i2u242_41 0C66                                 i2u155_40 1AE6  
                               i2u219_40 1D36                                 i2u163_40 1DEE  
                               i2u147_40 1792                                 i2u171_40 0E60  
                               i2u227_40 237E                                 i2u235_40 16FA  
                               i2u251_40 0D2C                                 i2u243_40 0C7E  
                               i2u155_41 1AE2                                 i2u219_41 1D32  
                               i2u163_41 1DEA                                 i2u147_41 178E  
                               i2u171_41 0E5C                                 i2u227_41 237A  
                               i2u235_41 16F6                                 i2u251_41 0D28  
                               i2u243_41 0C7A                                 i2u156_40 1AFE  
                               i2u164_40 1E02                                 i2u148_40 17F6  
                               i2u172_40 0E90                                 i2u180_40 1C76  
                               i2u228_40 2398                                 i2u260_40 0E12  
                               i2u252_40 0D3E                                 i2u244_40 0C92  
                               i2u156_41 1AFA                                 i2u164_41 1DFE  
                               i2u148_41 17F2                                 i2u172_41 0E8C  
                               i2u180_41 1C72                                 i2u228_41 2394  
                               i2u260_41 0E0E                                 i2u252_41 0D3A  
                               i2u244_41 0C8E                                 i2u157_40 1B30  
                               i2u165_40 1E18                                 i2u149_40 0FC2  
                               i2u173_40 0EDA                                 i2u181_40 1C8C  
                               i2u229_40 23B2                                 i2u261_40 0E48  
                               i2u253_40 0D4C                                 i2u245_40 0CA0  
                               i2u157_41 1B2C                                 i2u165_41 1E14  
                               i2u149_41 0FBE                                 i2u181_41 1C88  
                               i2u229_41 23AE                                 i2u261_41 0E44  
                               i2u253_41 0D48                                 i2u245_41 0C9C  
                               i2u173_47 0ED0                                 i2u158_40 1B5C  
                               i2u166_40 1E54                                 i2u190_40 0972  
                               i2u174_40 0F0A                                 i2u182_40 1CC4  
                               i2u254_40 0D5E                                 i2u246_40 0CBA  
                               i2u166_41 1E50                                 i2u190_41 096E  
                               i2u182_41 1CC0                                 i2u254_41 0D5A  
                               i2u246_41 0CB6                                 i2u158_47 1B52  
                               i2u174_47 0F00                                 i2u159_40 1B7A  
                               i2u191_40 0986                                 i2u183_40 08DA  
                               i2u175_40 0F2C                                 i2u167_40 2086  
                               i2u255_40 0D6C                                 i2u247_40 0CC8  
                               i2u239_40 0C34                                 i2u159_41 1B76  
                               i2u191_41 0982                                 i2u183_41 08D6  
                               i2u175_41 0F28                                 i2u167_41 2082  
                               i2u255_41 0D68                                 i2u247_41 0CC4  
                               i2u239_41 0C30                                 i2u192_40 0A04  
                               i2u184_40 08EE                                 i2u176_40 0F68  
                               i2u168_40 20E4                                 i2u256_40 0D9A  
                               i2u248_40 0CDA                                 i2u192_41 0A00  
                               i2u184_41 08EA                                 i2u168_41 20E0  
                               i2u256_41 0D96                                 i2u248_41 0CD6  
                               i2u176_47 0F5E                                 i2u193_40 0A2C  
                               i2u185_40 0906                                 i2u177_40 1BE8  
                               i2u169_40 1F3E                                 i2u257_40 0DAE  
                               i2u249_40 0CE8                                 i2u193_41 0A28  
                               i2u185_41 0902                                 i2u177_41 1BE4  
                               i2u169_41 1F3A                                 i2u257_41 0DAA  
                               i2u249_41 0CE4                                 _PIR1bits 0F9E  
                               i2u194_40 0A7E                                 i2u186_40 0922  
                               i2u178_40 1C12                                 i2u258_40 0DC0  
                               i2u194_41 0A7A                                 i2u186_41 091E  
                               i2u178_41 1C0E                                 i2u258_41 0DBC  
                               i2u195_40 0A94                                 i2u187_40 0936  
                               i2u179_40 1C20                                 i2u259_40 0DDE  
                               i2u195_41 0A90                                 i2u187_41 0932  
                               i2u179_41 1C1C                                 i2u259_41 0DDA  
                               _PIR2bits 0FA1                                 i2u196_40 0AA2  
                               i2u188_40 094A                                 i2u196_41 0A9E  
                               i2u188_41 0946                                 i2u197_40 0B12  
                               i2u189_40 0960                                 i2u197_41 0B0E  
                               i2u189_41 095C                                 i2u198_40 0B6E  
                               i2u198_41 0B6A                                 i2u199_40 0B84  
                               i2u199_41 0B80                  i2_PIC18F4550_Initialize 2720  
                               _RCONbits 0FD0                                 _UEP0bits 0F70  
             _USBDeferINDataStagePackets 003F                                 _UCONbits 0F6D  
                   _USBConfigureEndpoint 2120                    ?_USBTransferOnePacket 007F  
                      _SYS_InterruptHigh 0008                             _RemoteWakeup 0047  
                               i2_memset 25DE                       ?_SYS_InterruptHigh 0001  
                __end_of_USBStallHandler 23D0              ??_USBCtrlEPAllowStatusStage 0001  
            __end_of_USBStdSetCfgHandler 1FB4                                 _Init_PWM 267A  
                    ??_SYS_InterruptHigh 0020                       __end_of_device_dsc 08C3  
                ?_USBCtrlTrfSetupHandler 0001                  USBStdGetStatusHandler@p 0002  
                               __Hrparam 0000                                memcpy@tmp 000B  
                               __Lrparam 0000                   USBTransferOnePacket@ep 0087  
                               _SetupPkt 0420                    ?_USBConfigureEndpoint 0001  
                      ??_USBDeviceAttach 007F                __end_of_SYS_InterruptHigh 2484  
                               __ptext11 0C24                                 __ptext20 137C  
                               __ptext12 15FC                                 __ptext21 206C  
                               __ptext13 2566                                 __ptext30 0FAC  
                               __ptext22 19A4                                 __ptext14 26A8  
                               __ptext31 2648                                 __ptext23 1ECE  
                               __ptext15 2370                                 __ptext32 173A  
                               __ptext24 25DE                                 __ptext16 2616  
                               __ptext33 24D4                                 __ptext25 1BC6  
                               __ptext17 1FB4                                 __ptext34 2120  
                               __ptext26 0E4C                                 __ptext18 2484  
                               __ptext35 22FC                                 __ptext27 08C8  
                               __ptext19 226C                                 __ptext36 10F6  
                               __ptext28 21D0                                 __ptext37 1DDE  
                               __ptext29 2720                                 __ptext38 1CD4  
                               __ptext39 1AB6           __end_of_USBCtrlTrfSetupHandler 22FC  
                      ?_USBCtrlEPService 0001                ??i2_PIC18F4550_Initialize 0001  
                     ??_USBCtrlEPService 001E                      _USBCtrlTrfInHandler 1CD4  
                               isa$xinst 0000                                 _outPipes 0060  
                   _USBCtrlTrfOutHandler 22FC                                 int$flags 0050  
              _USBCtrlEPAllowStatusStage 1DDE                   ??_USBTransferOnePacket 0083  
         ?_APP_DeviceCustomHIDInitialize 0001                _USBDeferStatusStagePacket 0042  
                             _INTCONbits 0FF2                     ?_USBCtrlTrfInHandler 0001  
                               memcpy@d1 0001                                 memcpy@s1 0003  
          USBCtrlTrfTxService@byteToSend 0001                                 memset@p1 007F  
                       ?_USBStallHandler 0001                 USBStdFeatureReqHandler@p 001C  
                               intlevel1 0000                                 intlevel2 0000  
__end_of_USER_USB_CALLBACK_EVENT_HANDLER 226C        ??_USER_USB_CALLBACK_EVENT_HANDLER 0015  
       ?_USER_USB_CALLBACK_EVENT_HANDLER 000F          _USER_USB_CALLBACK_EVENT_HANDLER 21D0  
           i2USBTransferOnePacket@handle 000A                  ??_PIC18F4550_Initialize 007F  
                      ?_pwm_low_priority 0001               i2USBTransferOnePacket@data 0002  
                 ??_USBConfigureEndpoint 0002                    ?_USBCtrlTrfOutHandler 0001  
                     ??_pwm_low_priority 007C                      _USBCtrlTrfRxService 10F6  
                     _USBWakeFromSuspend 2566                  _USBStdFeatureReqHandler 08C8  
                    _USBCtrlTrfTxService 1AB6                      ?_USBWakeFromSuspend 0001  
                  ??_USBCtrlTrfInHandler 0002                    _USBAlternateInterface 004E  
              i2USBTransferOnePacket@dir 0001                i2USBTransferOnePacket@len 0004  
                    USBEnableEndpoint@ep 000E                          _endpoint_number 0045  
                   ?_USBCtrlTrfRxService 0001                 ?_USBCtrlEPAllowDataStage 0001  
                   ?_USBCtrlTrfTxService 0001             _USBStatusStageTimeoutCounter 0043  
                   ??_USBWakeFromSuspend 0017               USBTransferOnePacket@handle 0088  
                             _USB_CD_Ptr 0807                              _USBInHandle 0030  
